
power_supply.elf:     file format elf32-avr

Sections:
Idx Name          Size      VMA       LMA       File off  Algn
  0 .data         00000194  00800100  00004590  00004624  2**0
                  CONTENTS, ALLOC, LOAD, DATA
  1 .text         00004590  00000000  00000000  00000094  2**1
                  CONTENTS, ALLOC, LOAD, READONLY, CODE
  2 .bss          000003ca  00800294  00800294  000047b8  2**0
                  ALLOC
  3 .comment      00000030  00000000  00000000  000047b8  2**0
                  CONTENTS, READONLY
  4 .note.gnu.avr.deviceinfo 00000040  00000000  00000000  000047e8  2**2
                  CONTENTS, READONLY
  5 .debug_aranges 00000f30  00000000  00000000  00004828  2**3
                  CONTENTS, READONLY, DEBUGGING
  6 .debug_info   00024697  00000000  00000000  00005758  2**0
                  CONTENTS, READONLY, DEBUGGING
  7 .debug_abbrev 0000542f  00000000  00000000  00029def  2**0
                  CONTENTS, READONLY, DEBUGGING
  8 .debug_line   000076c8  00000000  00000000  0002f21e  2**0
                  CONTENTS, READONLY, DEBUGGING
  9 .debug_frame  00002f4c  00000000  00000000  000368e8  2**2
                  CONTENTS, READONLY, DEBUGGING
 10 .debug_str    0000681d  00000000  00000000  00039834  2**0
                  CONTENTS, READONLY, DEBUGGING
 11 .debug_loc    0000f332  00000000  00000000  00040051  2**0
                  CONTENTS, READONLY, DEBUGGING
 12 .debug_ranges 00000e68  00000000  00000000  0004f383  2**0
                  CONTENTS, READONLY, DEBUGGING

Disassembly of section .text:

00000000 <__vectors>:
       0:	0c 94 74 00 	jmp	0xe8	; 0xe8 <__ctors_end>
       4:	0c 94 ef 1b 	jmp	0x37de	; 0x37de <__vector_1>
       8:	0c 94 16 1c 	jmp	0x382c	; 0x382c <__vector_2>
       c:	0c 94 9c 00 	jmp	0x138	; 0x138 <__bad_interrupt>
      10:	0c 94 9c 00 	jmp	0x138	; 0x138 <__bad_interrupt>
      14:	0c 94 9c 00 	jmp	0x138	; 0x138 <__bad_interrupt>
      18:	0c 94 9c 00 	jmp	0x138	; 0x138 <__bad_interrupt>
      1c:	0c 94 9c 00 	jmp	0x138	; 0x138 <__bad_interrupt>
      20:	0c 94 9c 00 	jmp	0x138	; 0x138 <__bad_interrupt>
      24:	0c 94 9c 00 	jmp	0x138	; 0x138 <__bad_interrupt>
      28:	0c 94 9c 00 	jmp	0x138	; 0x138 <__bad_interrupt>
      2c:	0c 94 9c 00 	jmp	0x138	; 0x138 <__bad_interrupt>
      30:	0c 94 9c 00 	jmp	0x138	; 0x138 <__bad_interrupt>
      34:	0c 94 9c 00 	jmp	0x138	; 0x138 <__bad_interrupt>
      38:	0c 94 9c 00 	jmp	0x138	; 0x138 <__bad_interrupt>
      3c:	0c 94 9c 00 	jmp	0x138	; 0x138 <__bad_interrupt>
      40:	0c 94 3d 1c 	jmp	0x387a	; 0x387a <__vector_16>
      44:	0c 94 9c 00 	jmp	0x138	; 0x138 <__bad_interrupt>
      48:	0c 94 9c 00 	jmp	0x138	; 0x138 <__bad_interrupt>
      4c:	0c 94 9c 00 	jmp	0x138	; 0x138 <__bad_interrupt>
      50:	0c 94 9c 00 	jmp	0x138	; 0x138 <__bad_interrupt>
      54:	0c 94 9c 00 	jmp	0x138	; 0x138 <__bad_interrupt>
      58:	0c 94 9c 00 	jmp	0x138	; 0x138 <__bad_interrupt>
      5c:	0c 94 9c 00 	jmp	0x138	; 0x138 <__bad_interrupt>
      60:	0c 94 9b 16 	jmp	0x2d36	; 0x2d36 <__vector_24>
      64:	0c 94 9c 00 	jmp	0x138	; 0x138 <__bad_interrupt>

00000068 <__trampolines_end>:
      68:	00 5e       	subi	r16, 0xE0	; 224
      6a:	bc e2       	ldi	r27, 0x2C	; 44
      6c:	61 3f       	cpi	r22, 0xF1	; 241
      6e:	dd 83       	std	Y+5, r29	; 0x05
      70:	c2 9c       	mul	r12, r2
      72:	7e 20       	and	r7, r14
      74:	a3 fd       	sbrc	r26, 3
      76:	1f 41       	sbci	r17, 0x1F	; 31
      78:	00 9d       	mul	r16, r0
      7a:	23 be       	out	0x33, r2	; 51
      7c:	46 db       	rcall	.-2420   	; 0xfffff70a <__eeprom_end+0xff7ef70a>
      7e:	65 f8       	bld	r6, 5
      80:	8c 11       	cpse	r24, r12
      82:	af 32       	cpi	r26, 0x2F	; 47
      84:	ca 57       	subi	r28, 0x7A	; 122
      86:	e9 74       	andi	r30, 0x49	; 73

00000088 <digital_pin_to_timer_PGM>:
      88:	00 00 00 08 00 02 01 00 00 03 04 07 00 00 00 00     ................
      98:	00 00 00 00                                         ....

0000009c <digital_pin_to_bit_mask_PGM>:
      9c:	01 02 04 08 10 20 40 80 01 02 04 08 10 20 01 02     ..... @...... ..
      ac:	04 08 10 20                                         ... 

000000b0 <digital_pin_to_port_PGM>:
      b0:	04 04 04 04 04 04 04 04 02 02 02 02 02 02 03 03     ................
      c0:	03 03 03 03                                         ....

000000c4 <port_to_input_PGM>:
      c4:	00 00 00 00 23 00 26 00 29 00                       ....#.&.).

000000ce <port_to_output_PGM>:
      ce:	00 00 00 00 25 00 28 00 2b 00                       ....%.(.+.

000000d8 <port_to_mode_PGM>:
      d8:	00 00 00 00 24 00 27 00 2a 00                       ....$.'.*.

000000e2 <__ctors_start>:
      e2:	a3 04       	cpc	r10, r3
      e4:	75 0e       	add	r7, r21
      e6:	8a 18       	sub	r8, r10

000000e8 <__ctors_end>:
      e8:	11 24       	eor	r1, r1
      ea:	1f be       	out	0x3f, r1	; 63
      ec:	cf ef       	ldi	r28, 0xFF	; 255
      ee:	d8 e0       	ldi	r29, 0x08	; 8
      f0:	de bf       	out	0x3e, r29	; 62
      f2:	cd bf       	out	0x3d, r28	; 61

000000f4 <__do_copy_data>:
      f4:	12 e0       	ldi	r17, 0x02	; 2
      f6:	a0 e0       	ldi	r26, 0x00	; 0
      f8:	b1 e0       	ldi	r27, 0x01	; 1
      fa:	e0 e9       	ldi	r30, 0x90	; 144
      fc:	f5 e4       	ldi	r31, 0x45	; 69
      fe:	02 c0       	rjmp	.+4      	; 0x104 <__do_copy_data+0x10>
     100:	05 90       	lpm	r0, Z+
     102:	0d 92       	st	X+, r0
     104:	a4 39       	cpi	r26, 0x94	; 148
     106:	b1 07       	cpc	r27, r17
     108:	d9 f7       	brne	.-10     	; 0x100 <__do_copy_data+0xc>

0000010a <__do_clear_bss>:
     10a:	26 e0       	ldi	r18, 0x06	; 6
     10c:	a4 e9       	ldi	r26, 0x94	; 148
     10e:	b2 e0       	ldi	r27, 0x02	; 2
     110:	01 c0       	rjmp	.+2      	; 0x114 <.do_clear_bss_start>

00000112 <.do_clear_bss_loop>:
     112:	1d 92       	st	X+, r1

00000114 <.do_clear_bss_start>:
     114:	ae 35       	cpi	r26, 0x5E	; 94
     116:	b2 07       	cpc	r27, r18
     118:	e1 f7       	brne	.-8      	; 0x112 <.do_clear_bss_loop>

0000011a <__do_global_ctors>:
     11a:	10 e0       	ldi	r17, 0x00	; 0
     11c:	c4 e7       	ldi	r28, 0x74	; 116
     11e:	d0 e0       	ldi	r29, 0x00	; 0
     120:	04 c0       	rjmp	.+8      	; 0x12a <__do_global_ctors+0x10>
     122:	21 97       	sbiw	r28, 0x01	; 1
     124:	fe 01       	movw	r30, r28
     126:	0e 94 3c 20 	call	0x4078	; 0x4078 <__tablejump2__>
     12a:	c1 37       	cpi	r28, 0x71	; 113
     12c:	d1 07       	cpc	r29, r17
     12e:	c9 f7       	brne	.-14     	; 0x122 <__do_global_ctors+0x8>
     130:	0e 94 cd 1a 	call	0x359a	; 0x359a <main>
     134:	0c 94 c6 22 	jmp	0x458c	; 0x458c <_exit>

00000138 <__bad_interrupt>:
     138:	0c 94 00 00 	jmp	0	; 0x0 <__vectors>

0000013c <_ZN16LinarCoolerMotorD1Ev>:

#include "LinarCoolerMotor.h"
#include "Arduino.h"

// default constructor
LinarCoolerMotor::LinarCoolerMotor()
     13c:	08 95       	ret

0000013e <_ZN16LinarCoolerMotor15GetPowerProcentEv>:
     13e:	fc 01       	movw	r30, r24
     140:	26 85       	ldd	r18, Z+14	; 0x0e
     142:	37 85       	ldd	r19, Z+15	; 0x0f
     144:	44 e6       	ldi	r20, 0x64	; 100
     146:	42 9f       	mul	r20, r18
     148:	c0 01       	movw	r24, r0
     14a:	43 9f       	mul	r20, r19
     14c:	90 0d       	add	r25, r0
     14e:	11 24       	eor	r1, r1
     150:	60 85       	ldd	r22, Z+8	; 0x08
     152:	71 85       	ldd	r23, Z+9	; 0x09
     154:	0e 94 f2 1f 	call	0x3fe4	; 0x3fe4 <__divmodhi4>
     158:	cb 01       	movw	r24, r22
     15a:	08 95       	ret

0000015c <_ZN16LinarCoolerMotorD0Ev>:
     15c:	0c 94 de 1a 	jmp	0x35bc	; 0x35bc <_ZdlPv>

00000160 <_ZN16LinarCoolerMotor6UpdateEi>:
     160:	cf 93       	push	r28
     162:	df 93       	push	r29
     164:	ec 01       	movw	r28, r24
     166:	8c 81       	ldd	r24, Y+4	; 0x04
     168:	9d 81       	ldd	r25, Y+5	; 0x05
     16a:	86 17       	cp	r24, r22
     16c:	97 07       	cpc	r25, r23
     16e:	1c f0       	brlt	.+6      	; 0x176 <_ZN16LinarCoolerMotor6UpdateEi+0x16>
     170:	1f 86       	std	Y+15, r1	; 0x0f
     172:	1e 86       	std	Y+14, r1	; 0x0e
     174:	12 c0       	rjmp	.+36     	; 0x19a <_ZN16LinarCoolerMotor6UpdateEi+0x3a>
     176:	68 1b       	sub	r22, r24
     178:	79 0b       	sbc	r23, r25
     17a:	07 2e       	mov	r0, r23
     17c:	00 0c       	add	r0, r0
     17e:	88 0b       	sbc	r24, r24
     180:	99 0b       	sbc	r25, r25
     182:	0e 94 aa 19 	call	0x3354	; 0x3354 <__floatsisf>
     186:	2a 85       	ldd	r18, Y+10	; 0x0a
     188:	3b 85       	ldd	r19, Y+11	; 0x0b
     18a:	4c 85       	ldd	r20, Y+12	; 0x0c
     18c:	5d 85       	ldd	r21, Y+13	; 0x0d
     18e:	0e 94 5f 1a 	call	0x34be	; 0x34be <__mulsf3>
     192:	0e 94 72 19 	call	0x32e4	; 0x32e4 <__fixsfsi>
     196:	7f 87       	std	Y+15, r23	; 0x0f
     198:	6e 87       	std	Y+14, r22	; 0x0e
     19a:	88 85       	ldd	r24, Y+8	; 0x08
     19c:	99 85       	ldd	r25, Y+9	; 0x09
     19e:	6e 85       	ldd	r22, Y+14	; 0x0e
     1a0:	7f 85       	ldd	r23, Y+15	; 0x0f
     1a2:	86 17       	cp	r24, r22
     1a4:	97 07       	cpc	r25, r23
     1a6:	0c f4       	brge	.+2      	; 0x1aa <_ZN16LinarCoolerMotor6UpdateEi+0x4a>
     1a8:	bc 01       	movw	r22, r24
     1aa:	8a 81       	ldd	r24, Y+2	; 0x02
     1ac:	df 91       	pop	r29
     1ae:	cf 91       	pop	r28
     1b0:	0c 94 57 1d 	jmp	0x3aae	; 0x3aae <analogWrite>

000001b4 <_ZN16LinarCoolerMotorC1Ei>:
{
} //LinarCoolerMotor

LinarCoolerMotor::LinarCoolerMotor(int pwmPin)
     1b4:	0f 93       	push	r16
     1b6:	1f 93       	push	r17
     1b8:	fc 01       	movw	r30, r24
     1ba:	86 2f       	mov	r24, r22
     1bc:	2b e1       	ldi	r18, 0x1B	; 27
     1be:	31 e0       	ldi	r19, 0x01	; 1
     1c0:	31 83       	std	Z+1, r19	; 0x01
     1c2:	20 83       	st	Z, r18
     1c4:	28 e2       	ldi	r18, 0x28	; 40
     1c6:	30 e0       	ldi	r19, 0x00	; 0
     1c8:	35 83       	std	Z+5, r19	; 0x05
     1ca:	24 83       	std	Z+4, r18	; 0x04
     1cc:	20 e5       	ldi	r18, 0x50	; 80
     1ce:	30 e0       	ldi	r19, 0x00	; 0
     1d0:	37 83       	std	Z+7, r19	; 0x07
     1d2:	26 83       	std	Z+6, r18	; 0x06
     1d4:	2f ef       	ldi	r18, 0xFF	; 255
     1d6:	30 e0       	ldi	r19, 0x00	; 0
     1d8:	31 87       	std	Z+9, r19	; 0x09
     1da:	20 87       	std	Z+8, r18	; 0x08
     1dc:	00 e0       	ldi	r16, 0x00	; 0
     1de:	10 e0       	ldi	r17, 0x00	; 0
     1e0:	20 ec       	ldi	r18, 0xC0	; 192
     1e2:	30 e4       	ldi	r19, 0x40	; 64
     1e4:	02 87       	std	Z+10, r16	; 0x0a
     1e6:	13 87       	std	Z+11, r17	; 0x0b
     1e8:	24 87       	std	Z+12, r18	; 0x0c
     1ea:	35 87       	std	Z+13, r19	; 0x0d
     1ec:	17 86       	std	Z+15, r1	; 0x0f
     1ee:	16 86       	std	Z+14, r1	; 0x0e
{
	coolerMotorPin = pwmPin;
     1f0:	62 83       	std	Z+2, r22	; 0x02
     1f2:	73 83       	std	Z+3, r23	; 0x03
	pinMode(coolerMotorPin, OUTPUT);
     1f4:	61 e0       	ldi	r22, 0x01	; 1
}
     1f6:	1f 91       	pop	r17
     1f8:	0f 91       	pop	r16
} //LinarCoolerMotor

LinarCoolerMotor::LinarCoolerMotor(int pwmPin)
{
	coolerMotorPin = pwmPin;
	pinMode(coolerMotorPin, OUTPUT);
     1fa:	0c 94 df 1d 	jmp	0x3bbe	; 0x3bbe <pinMode>

000001fe <_ZN11Display16x2D1Ev>:
Display16x2::Display16x2()
{
} //Display

// default destructor
Display16x2::~Display16x2()
     1fe:	08 95       	ret

00000200 <_ZN11Display16x25ClearEv>:
	lcd.print(i);
}

void Display16x2::Clear()
{
	lcd.clear();
     200:	84 e9       	ldi	r24, 0x94	; 148
     202:	92 e0       	ldi	r25, 0x02	; 2
     204:	0c 94 a2 11 	jmp	0x2344	; 0x2344 <_ZN17LiquidCrystal_I2C5clearEv>

00000208 <_ZN11Display16x29SetCursorEii>:
	}
}

void Display16x2::SetCursor(int pos, int line)
{
	lcd.setCursor(pos, line);
     208:	84 e9       	ldi	r24, 0x94	; 148
     20a:	92 e0       	ldi	r25, 0x02	; 2
     20c:	0c 94 b0 11 	jmp	0x2360	; 0x2360 <_ZN17LiquidCrystal_I2C9setCursorEhh>

00000210 <_ZN11Display16x211InitDisplayEPKc>:

// продключение дисплея
LiquidCrystal_I2C  lcd (0x27, 16, 2);//параметры дисплея

void Display16x2:: InitDisplay(const char* strVer)
{
     210:	cf 93       	push	r28
     212:	df 93       	push	r29
     214:	eb 01       	movw	r28, r22
	lcd.begin();
     216:	84 e9       	ldi	r24, 0x94	; 148
     218:	92 e0       	ldi	r25, 0x02	; 2
     21a:	0e 94 ec 11 	call	0x23d8	; 0x23d8 <_ZN17LiquidCrystal_I2C5beginEv>
	lcd.clear();
     21e:	84 e9       	ldi	r24, 0x94	; 148
     220:	92 e0       	ldi	r25, 0x02	; 2
     222:	0e 94 a2 11 	call	0x2344	; 0x2344 <_ZN17LiquidCrystal_I2C5clearEv>
	lcd.setCursor(2,0);
     226:	40 e0       	ldi	r20, 0x00	; 0
     228:	62 e0       	ldi	r22, 0x02	; 2
     22a:	84 e9       	ldi	r24, 0x94	; 148
     22c:	92 e0       	ldi	r25, 0x02	; 2
     22e:	0e 94 b0 11 	call	0x2360	; 0x2360 <_ZN17LiquidCrystal_I2C9setCursorEhh>
	lcd.print("power supply");
     232:	63 e2       	ldi	r22, 0x23	; 35
     234:	71 e0       	ldi	r23, 0x01	; 1
     236:	84 e9       	ldi	r24, 0x94	; 148
     238:	92 e0       	ldi	r25, 0x02	; 2
     23a:	0e 94 2d 1b 	call	0x365a	; 0x365a <_ZN5Print5printEPKc>
	lcd.setCursor(4,1);
     23e:	41 e0       	ldi	r20, 0x01	; 1
     240:	64 e0       	ldi	r22, 0x04	; 4
     242:	84 e9       	ldi	r24, 0x94	; 148
     244:	92 e0       	ldi	r25, 0x02	; 2
     246:	0e 94 b0 11 	call	0x2360	; 0x2360 <_ZN17LiquidCrystal_I2C9setCursorEhh>
	lcd.print(strVer);
     24a:	be 01       	movw	r22, r28
     24c:	84 e9       	ldi	r24, 0x94	; 148
     24e:	92 e0       	ldi	r25, 0x02	; 2
}
     250:	df 91       	pop	r29
     252:	cf 91       	pop	r28
	lcd.begin();
	lcd.clear();
	lcd.setCursor(2,0);
	lcd.print("power supply");
	lcd.setCursor(4,1);
	lcd.print(strVer);
     254:	0c 94 2d 1b 	jmp	0x365a	; 0x365a <_ZN5Print5printEPKc>

00000258 <_ZN11Display16x28OffPrintEv>:
}

void Display16x2::OffPrint()
{
	lcd.clear();
     258:	84 e9       	ldi	r24, 0x94	; 148
     25a:	92 e0       	ldi	r25, 0x02	; 2
     25c:	0e 94 a2 11 	call	0x2344	; 0x2344 <_ZN17LiquidCrystal_I2C5clearEv>
	lcd.setCursor(6,0);
     260:	40 e0       	ldi	r20, 0x00	; 0
     262:	66 e0       	ldi	r22, 0x06	; 6
     264:	84 e9       	ldi	r24, 0x94	; 148
     266:	92 e0       	ldi	r25, 0x02	; 2
     268:	0e 94 b0 11 	call	0x2360	; 0x2360 <_ZN17LiquidCrystal_I2C9setCursorEhh>
	lcd.print("OFF");
     26c:	60 e3       	ldi	r22, 0x30	; 48
     26e:	71 e0       	ldi	r23, 0x01	; 1
     270:	84 e9       	ldi	r24, 0x94	; 148
     272:	92 e0       	ldi	r25, 0x02	; 2
     274:	0c 94 2d 1b 	jmp	0x365a	; 0x365a <_ZN5Print5printEPKc>

00000278 <_ZN11Display16x25PrintEPKc>:
	
}

void Display16x2::Print(const char c[])
{
	lcd.print(c);
     278:	84 e9       	ldi	r24, 0x94	; 148
     27a:	92 e0       	ldi	r25, 0x02	; 2
     27c:	0c 94 2d 1b 	jmp	0x365a	; 0x365a <_ZN5Print5printEPKc>

00000280 <_ZN11Display16x216TemperaturePrintEf>:
	lcd.setCursor(6,0);
	lcd.print("OFF");
}

void Display16x2::TemperaturePrint(float temperature)
{
     280:	cf 92       	push	r12
     282:	df 92       	push	r13
     284:	ef 92       	push	r14
     286:	ff 92       	push	r15
     288:	cf 93       	push	r28
     28a:	df 93       	push	r29
     28c:	00 d0       	rcall	.+0      	; 0x28e <_ZN11Display16x216TemperaturePrintEf+0xe>
     28e:	00 d0       	rcall	.+0      	; 0x290 <_ZN11Display16x216TemperaturePrintEf+0x10>
     290:	00 d0       	rcall	.+0      	; 0x292 <_ZN11Display16x216TemperaturePrintEf+0x12>
     292:	cd b7       	in	r28, 0x3d	; 61
     294:	de b7       	in	r29, 0x3e	; 62
     296:	6a 01       	movw	r12, r20
     298:	7b 01       	movw	r14, r22
	lcd.clear();
     29a:	84 e9       	ldi	r24, 0x94	; 148
     29c:	92 e0       	ldi	r25, 0x02	; 2
     29e:	0e 94 a2 11 	call	0x2344	; 0x2344 <_ZN17LiquidCrystal_I2C5clearEv>
	lcd.setCursor(0,0);
     2a2:	40 e0       	ldi	r20, 0x00	; 0
     2a4:	60 e0       	ldi	r22, 0x00	; 0
     2a6:	84 e9       	ldi	r24, 0x94	; 148
     2a8:	92 e0       	ldi	r25, 0x02	; 2
     2aa:	0e 94 b0 11 	call	0x2360	; 0x2360 <_ZN17LiquidCrystal_I2C9setCursorEhh>
	lcd.print("max temperature");
     2ae:	64 e3       	ldi	r22, 0x34	; 52
     2b0:	71 e0       	ldi	r23, 0x01	; 1
     2b2:	84 e9       	ldi	r24, 0x94	; 148
     2b4:	92 e0       	ldi	r25, 0x02	; 2
     2b6:	0e 94 2d 1b 	call	0x365a	; 0x365a <_ZN5Print5printEPKc>
	lcd.setCursor(0,1);
     2ba:	41 e0       	ldi	r20, 0x01	; 1
     2bc:	60 e0       	ldi	r22, 0x00	; 0
     2be:	84 e9       	ldi	r24, 0x94	; 148
     2c0:	92 e0       	ldi	r25, 0x02	; 2
     2c2:	0e 94 b0 11 	call	0x2360	; 0x2360 <_ZN17LiquidCrystal_I2C9setCursorEhh>
	lcd.print("exceeded");
     2c6:	64 e4       	ldi	r22, 0x44	; 68
     2c8:	71 e0       	ldi	r23, 0x01	; 1
     2ca:	84 e9       	ldi	r24, 0x94	; 148
     2cc:	92 e0       	ldi	r25, 0x02	; 2
     2ce:	0e 94 2d 1b 	call	0x365a	; 0x365a <_ZN5Print5printEPKc>
	lcd.setCursor(9,1);
     2d2:	41 e0       	ldi	r20, 0x01	; 1
     2d4:	69 e0       	ldi	r22, 0x09	; 9
     2d6:	84 e9       	ldi	r24, 0x94	; 148
     2d8:	92 e0       	ldi	r25, 0x02	; 2
     2da:	0e 94 b0 11 	call	0x2360	; 0x2360 <_ZN17LiquidCrystal_I2C9setCursorEhh>
	int va = temperature*10;
	String strTemperature =  String(va/10, DEC);
     2de:	20 e0       	ldi	r18, 0x00	; 0
     2e0:	30 e0       	ldi	r19, 0x00	; 0
     2e2:	40 e2       	ldi	r20, 0x20	; 32
     2e4:	51 e4       	ldi	r21, 0x41	; 65
     2e6:	c7 01       	movw	r24, r14
     2e8:	b6 01       	movw	r22, r12
     2ea:	0e 94 5f 1a 	call	0x34be	; 0x34be <__mulsf3>
     2ee:	0e 94 72 19 	call	0x32e4	; 0x32e4 <__fixsfsi>
     2f2:	cb 01       	movw	r24, r22
     2f4:	6a e0       	ldi	r22, 0x0A	; 10
     2f6:	70 e0       	ldi	r23, 0x00	; 0
     2f8:	0e 94 f2 1f 	call	0x3fe4	; 0x3fe4 <__divmodhi4>
     2fc:	4a e0       	ldi	r20, 0x0A	; 10
     2fe:	ce 01       	movw	r24, r28
     300:	01 96       	adiw	r24, 0x01	; 1
     302:	0e 94 6e 1f 	call	0x3edc	; 0x3edc <_ZN6StringC1Eih>
	unsigned char concat(const __FlashStringHelper * str);

	// if there's not enough memory for the concatenated value, the string
	// will be left unchanged (but this isn't signalled in any way)
	String & operator += (const String &rhs)	{concat(rhs); return (*this);}
	String & operator += (const char *cstr)		{concat(cstr); return (*this);}
     306:	6d e4       	ldi	r22, 0x4D	; 77
     308:	71 e0       	ldi	r23, 0x01	; 1
     30a:	ce 01       	movw	r24, r28
     30c:	01 96       	adiw	r24, 0x01	; 1
     30e:	0e 94 cf 1f 	call	0x3f9e	; 0x3f9e <_ZN6String6concatEPKc>
	strTemperature +="C";
	lcd.print(strTemperature);
     312:	be 01       	movw	r22, r28
     314:	6f 5f       	subi	r22, 0xFF	; 255
     316:	7f 4f       	sbci	r23, 0xFF	; 255
     318:	84 e9       	ldi	r24, 0x94	; 148
     31a:	92 e0       	ldi	r25, 0x02	; 2
     31c:	0e 94 1f 1b 	call	0x363e	; 0x363e <_ZN5Print5printERK6String>
	lcd.print("max temperature");
	lcd.setCursor(0,1);
	lcd.print("exceeded");
	lcd.setCursor(9,1);
	int va = temperature*10;
	String strTemperature =  String(va/10, DEC);
     320:	ce 01       	movw	r24, r28
     322:	01 96       	adiw	r24, 0x01	; 1
     324:	0e 94 74 1e 	call	0x3ce8	; 0x3ce8 <_ZN6StringD1Ev>
	strTemperature +="C";
	lcd.print(strTemperature);
}
     328:	26 96       	adiw	r28, 0x06	; 6
     32a:	0f b6       	in	r0, 0x3f	; 63
     32c:	f8 94       	cli
     32e:	de bf       	out	0x3e, r29	; 62
     330:	0f be       	out	0x3f, r0	; 63
     332:	cd bf       	out	0x3d, r28	; 61
     334:	df 91       	pop	r29
     336:	cf 91       	pop	r28
     338:	ff 90       	pop	r15
     33a:	ef 90       	pop	r14
     33c:	df 90       	pop	r13
     33e:	cf 90       	pop	r12
     340:	08 95       	ret

00000342 <_ZN11Display16x215MemoryReadPrintEi>:

void Display16x2::MemoryReadPrint(int memNum)
{
     342:	cf 93       	push	r28
     344:	df 93       	push	r29
     346:	eb 01       	movw	r28, r22
	lcd.clear();
     348:	84 e9       	ldi	r24, 0x94	; 148
     34a:	92 e0       	ldi	r25, 0x02	; 2
     34c:	0e 94 a2 11 	call	0x2344	; 0x2344 <_ZN17LiquidCrystal_I2C5clearEv>
	lcd.setCursor(1,0);
     350:	40 e0       	ldi	r20, 0x00	; 0
     352:	61 e0       	ldi	r22, 0x01	; 1
     354:	84 e9       	ldi	r24, 0x94	; 148
     356:	92 e0       	ldi	r25, 0x02	; 2
     358:	0e 94 b0 11 	call	0x2360	; 0x2360 <_ZN17LiquidCrystal_I2C9setCursorEhh>
	lcd.print("Memory read");
     35c:	6f e4       	ldi	r22, 0x4F	; 79
     35e:	71 e0       	ldi	r23, 0x01	; 1
     360:	84 e9       	ldi	r24, 0x94	; 148
     362:	92 e0       	ldi	r25, 0x02	; 2
     364:	0e 94 2d 1b 	call	0x365a	; 0x365a <_ZN5Print5printEPKc>
	lcd.setCursor(13,0);
     368:	40 e0       	ldi	r20, 0x00	; 0
     36a:	6d e0       	ldi	r22, 0x0D	; 13
     36c:	84 e9       	ldi	r24, 0x94	; 148
     36e:	92 e0       	ldi	r25, 0x02	; 2
     370:	0e 94 b0 11 	call	0x2360	; 0x2360 <_ZN17LiquidCrystal_I2C9setCursorEhh>
	lcd.print(memNum);
     374:	4a e0       	ldi	r20, 0x0A	; 10
     376:	50 e0       	ldi	r21, 0x00	; 0
     378:	be 01       	movw	r22, r28
     37a:	84 e9       	ldi	r24, 0x94	; 148
     37c:	92 e0       	ldi	r25, 0x02	; 2
}
     37e:	df 91       	pop	r29
     380:	cf 91       	pop	r28
{
	lcd.clear();
	lcd.setCursor(1,0);
	lcd.print("Memory read");
	lcd.setCursor(13,0);
	lcd.print(memNum);
     382:	0c 94 c7 1b 	jmp	0x378e	; 0x378e <_ZN5Print5printEii>

00000386 <_ZN11Display16x215MemorySavePrintEi>:
}

void Display16x2::MemorySavePrint(int memNum)
{
     386:	cf 93       	push	r28
     388:	df 93       	push	r29
     38a:	eb 01       	movw	r28, r22
	lcd.clear();
     38c:	84 e9       	ldi	r24, 0x94	; 148
     38e:	92 e0       	ldi	r25, 0x02	; 2
     390:	0e 94 a2 11 	call	0x2344	; 0x2344 <_ZN17LiquidCrystal_I2C5clearEv>
	lcd.setCursor(1,0);
     394:	40 e0       	ldi	r20, 0x00	; 0
     396:	61 e0       	ldi	r22, 0x01	; 1
     398:	84 e9       	ldi	r24, 0x94	; 148
     39a:	92 e0       	ldi	r25, 0x02	; 2
     39c:	0e 94 b0 11 	call	0x2360	; 0x2360 <_ZN17LiquidCrystal_I2C9setCursorEhh>
	lcd.print("Memory saved");
     3a0:	6b e5       	ldi	r22, 0x5B	; 91
     3a2:	71 e0       	ldi	r23, 0x01	; 1
     3a4:	84 e9       	ldi	r24, 0x94	; 148
     3a6:	92 e0       	ldi	r25, 0x02	; 2
     3a8:	0e 94 2d 1b 	call	0x365a	; 0x365a <_ZN5Print5printEPKc>
	lcd.setCursor(13,0);
     3ac:	40 e0       	ldi	r20, 0x00	; 0
     3ae:	6d e0       	ldi	r22, 0x0D	; 13
     3b0:	84 e9       	ldi	r24, 0x94	; 148
     3b2:	92 e0       	ldi	r25, 0x02	; 2
     3b4:	0e 94 b0 11 	call	0x2360	; 0x2360 <_ZN17LiquidCrystal_I2C9setCursorEhh>
	lcd.print(memNum);
     3b8:	4a e0       	ldi	r20, 0x0A	; 10
     3ba:	50 e0       	ldi	r21, 0x00	; 0
     3bc:	be 01       	movw	r22, r28
     3be:	84 e9       	ldi	r24, 0x94	; 148
     3c0:	92 e0       	ldi	r25, 0x02	; 2
}
     3c2:	df 91       	pop	r29
     3c4:	cf 91       	pop	r28
{
	lcd.clear();
	lcd.setCursor(1,0);
	lcd.print("Memory saved");
	lcd.setCursor(13,0);
	lcd.print(memNum);
     3c6:	0c 94 c7 1b 	jmp	0x378e	; 0x378e <_ZN5Print5printEii>

000003ca <_ZN11Display16x25PrintEi>:
	lcd.print(c);
}

void Display16x2::Print(int i)
{
	lcd.print(i);
     3ca:	4a e0       	ldi	r20, 0x0A	; 10
     3cc:	50 e0       	ldi	r21, 0x00	; 0
     3ce:	84 e9       	ldi	r24, 0x94	; 148
     3d0:	92 e0       	ldi	r25, 0x02	; 2
     3d2:	0c 94 c7 1b 	jmp	0x378e	; 0x378e <_ZN5Print5printEii>

000003d6 <_ZN11Display16x2D0Ev>:
} //Display

// default destructor
Display16x2::~Display16x2()
{
} //~Display
     3d6:	0c 94 de 1a 	jmp	0x35bc	; 0x35bc <_ZdlPv>

000003da <_ZN11Display16x29ModePrintE8ModeEnum>:
void Display16x2::ModePrint(ModeEnum mode)
{
	//состояние
	if(mode == ModeEnum::SetVoltage)
	{
		lcd.setCursor(9,0);
     3da:	40 e0       	ldi	r20, 0x00	; 0
}

void Display16x2::ModePrint(ModeEnum mode)
{
	//состояние
	if(mode == ModeEnum::SetVoltage)
     3dc:	63 30       	cpi	r22, 0x03	; 3
     3de:	71 05       	cpc	r23, r1
     3e0:	71 f4       	brne	.+28     	; 0x3fe <_ZN11Display16x29ModePrintE8ModeEnum+0x24>
	{
		lcd.setCursor(9,0);
     3e2:	69 e0       	ldi	r22, 0x09	; 9
     3e4:	84 e9       	ldi	r24, 0x94	; 148
     3e6:	92 e0       	ldi	r25, 0x02	; 2
     3e8:	0e 94 b0 11 	call	0x2360	; 0x2360 <_ZN17LiquidCrystal_I2C9setCursorEhh>
		lcd.print(" ");
     3ec:	6b e6       	ldi	r22, 0x6B	; 107
     3ee:	71 e0       	ldi	r23, 0x01	; 1
     3f0:	84 e9       	ldi	r24, 0x94	; 148
     3f2:	92 e0       	ldi	r25, 0x02	; 2
     3f4:	0e 94 2d 1b 	call	0x365a	; 0x365a <_ZN5Print5printEPKc>
		lcd.setCursor(0,0);
     3f8:	40 e0       	ldi	r20, 0x00	; 0
     3fa:	60 e0       	ldi	r22, 0x00	; 0
     3fc:	10 c0       	rjmp	.+32     	; 0x41e <__LOCK_REGION_LENGTH__+0x1e>
		lcd.print(">");
	}
	else if(mode == ModeEnum::SetAmperaged)
     3fe:	64 30       	cpi	r22, 0x04	; 4
     400:	71 05       	cpc	r23, r1
     402:	a1 f4       	brne	.+40     	; 0x42c <__LOCK_REGION_LENGTH__+0x2c>
	{
		lcd.setCursor(0,0);
     404:	60 e0       	ldi	r22, 0x00	; 0
     406:	84 e9       	ldi	r24, 0x94	; 148
     408:	92 e0       	ldi	r25, 0x02	; 2
     40a:	0e 94 b0 11 	call	0x2360	; 0x2360 <_ZN17LiquidCrystal_I2C9setCursorEhh>
		lcd.print(" ");
     40e:	6b e6       	ldi	r22, 0x6B	; 107
     410:	71 e0       	ldi	r23, 0x01	; 1
     412:	84 e9       	ldi	r24, 0x94	; 148
     414:	92 e0       	ldi	r25, 0x02	; 2
     416:	0e 94 2d 1b 	call	0x365a	; 0x365a <_ZN5Print5printEPKc>
		lcd.setCursor(9,0);
     41a:	40 e0       	ldi	r20, 0x00	; 0
     41c:	69 e0       	ldi	r22, 0x09	; 9
     41e:	84 e9       	ldi	r24, 0x94	; 148
     420:	92 e0       	ldi	r25, 0x02	; 2
     422:	0e 94 b0 11 	call	0x2360	; 0x2360 <_ZN17LiquidCrystal_I2C9setCursorEhh>
		lcd.print(">");
     426:	68 e6       	ldi	r22, 0x68	; 104
     428:	71 e0       	ldi	r23, 0x01	; 1
     42a:	13 c0       	rjmp	.+38     	; 0x452 <__LOCK_REGION_LENGTH__+0x52>
	}
	else
	{
		lcd.setCursor(0,0);
     42c:	60 e0       	ldi	r22, 0x00	; 0
     42e:	84 e9       	ldi	r24, 0x94	; 148
     430:	92 e0       	ldi	r25, 0x02	; 2
     432:	0e 94 b0 11 	call	0x2360	; 0x2360 <_ZN17LiquidCrystal_I2C9setCursorEhh>
		lcd.print(" ");
     436:	6b e6       	ldi	r22, 0x6B	; 107
     438:	71 e0       	ldi	r23, 0x01	; 1
     43a:	84 e9       	ldi	r24, 0x94	; 148
     43c:	92 e0       	ldi	r25, 0x02	; 2
     43e:	0e 94 2d 1b 	call	0x365a	; 0x365a <_ZN5Print5printEPKc>
		lcd.setCursor(9,0);
     442:	40 e0       	ldi	r20, 0x00	; 0
     444:	69 e0       	ldi	r22, 0x09	; 9
     446:	84 e9       	ldi	r24, 0x94	; 148
     448:	92 e0       	ldi	r25, 0x02	; 2
     44a:	0e 94 b0 11 	call	0x2360	; 0x2360 <_ZN17LiquidCrystal_I2C9setCursorEhh>
		lcd.print(" ");
     44e:	6b e6       	ldi	r22, 0x6B	; 107
     450:	71 e0       	ldi	r23, 0x01	; 1
     452:	84 e9       	ldi	r24, 0x94	; 148
     454:	92 e0       	ldi	r25, 0x02	; 2
     456:	0c 94 2d 1b 	jmp	0x365a	; 0x365a <_ZN5Print5printEPKc>

0000045a <_ZN8IDisplay16ValueToDisplyStrEi.isra.2>:
			result += " ";
		}
		return result;
	}
	
	String ValueToDisplyStr(int val)
     45a:	ef 92       	push	r14
     45c:	ff 92       	push	r15
     45e:	0f 93       	push	r16
     460:	1f 93       	push	r17
     462:	cf 93       	push	r28
     464:	df 93       	push	r29
     466:	00 d0       	rcall	.+0      	; 0x468 <_ZN8IDisplay16ValueToDisplyStrEi.isra.2+0xe>
     468:	00 d0       	rcall	.+0      	; 0x46a <_ZN8IDisplay16ValueToDisplyStrEi.isra.2+0x10>
     46a:	00 d0       	rcall	.+0      	; 0x46c <_ZN8IDisplay16ValueToDisplyStrEi.isra.2+0x12>
     46c:	cd b7       	in	r28, 0x3d	; 61
     46e:	de b7       	in	r29, 0x3e	; 62
     470:	8c 01       	movw	r16, r24
     472:	7b 01       	movw	r14, r22
	{
		String result ="";
     474:	6c e6       	ldi	r22, 0x6C	; 108
     476:	71 e0       	ldi	r23, 0x01	; 1
     478:	0e 94 e2 1e 	call	0x3dc4	; 0x3dc4 <_ZN6StringC1EPKc>
		result = String(val, DEC);
     47c:	4a e0       	ldi	r20, 0x0A	; 10
     47e:	b7 01       	movw	r22, r14
     480:	ce 01       	movw	r24, r28
     482:	01 96       	adiw	r24, 0x01	; 1
     484:	0e 94 6e 1f 	call	0x3edc	; 0x3edc <_ZN6StringC1Eih>
     488:	be 01       	movw	r22, r28
     48a:	6f 5f       	subi	r22, 0xFF	; 255
     48c:	7f 4f       	sbci	r23, 0xFF	; 255
     48e:	c8 01       	movw	r24, r16
     490:	0e 94 4b 1f 	call	0x3e96	; 0x3e96 <_ZN6StringaSEOS_>
     494:	ce 01       	movw	r24, r28
     496:	01 96       	adiw	r24, 0x01	; 1
     498:	0e 94 74 1e 	call	0x3ce8	; 0x3ce8 <_ZN6StringD1Ev>
     49c:	f8 01       	movw	r30, r16
     49e:	84 81       	ldd	r24, Z+4	; 0x04
     4a0:	95 81       	ldd	r25, Z+5	; 0x05
		if(result.length()==2)
     4a2:	82 30       	cpi	r24, 0x02	; 2
     4a4:	91 05       	cpc	r25, r1
     4a6:	19 f4       	brne	.+6      	; 0x4ae <_ZN8IDisplay16ValueToDisplyStrEi.isra.2+0x54>
     4a8:	6b e6       	ldi	r22, 0x6B	; 107
     4aa:	71 e0       	ldi	r23, 0x01	; 1
     4ac:	04 c0       	rjmp	.+8      	; 0x4b6 <_ZN8IDisplay16ValueToDisplyStrEi.isra.2+0x5c>
		{
			result += " ";
		}
		else if(result.length()<2)
     4ae:	02 97       	sbiw	r24, 0x02	; 2
     4b0:	28 f4       	brcc	.+10     	; 0x4bc <_ZN8IDisplay16ValueToDisplyStrEi.isra.2+0x62>
     4b2:	6a e6       	ldi	r22, 0x6A	; 106
     4b4:	71 e0       	ldi	r23, 0x01	; 1
     4b6:	c8 01       	movw	r24, r16
     4b8:	0e 94 cf 1f 	call	0x3f9e	; 0x3f9e <_ZN6String6concatEPKc>
		{
			result += "  ";
		}
		return result;
	}
     4bc:	c8 01       	movw	r24, r16
     4be:	26 96       	adiw	r28, 0x06	; 6
     4c0:	0f b6       	in	r0, 0x3f	; 63
     4c2:	f8 94       	cli
     4c4:	de bf       	out	0x3e, r29	; 62
     4c6:	0f be       	out	0x3f, r0	; 63
     4c8:	cd bf       	out	0x3d, r28	; 61
     4ca:	df 91       	pop	r29
     4cc:	cf 91       	pop	r28
     4ce:	1f 91       	pop	r17
     4d0:	0f 91       	pop	r16
     4d2:	ff 90       	pop	r15
     4d4:	ef 90       	pop	r14
     4d6:	08 95       	ret

000004d8 <_ZN11Display16x221PrintTempAndFunStatusEii>:
		lcd.print(" ");
	}
}

void Display16x2::PrintTempAndFunStatus(int temp, int funPower)
{
     4d8:	ef 92       	push	r14
     4da:	ff 92       	push	r15
     4dc:	0f 93       	push	r16
     4de:	1f 93       	push	r17
     4e0:	cf 93       	push	r28
     4e2:	df 93       	push	r29
     4e4:	00 d0       	rcall	.+0      	; 0x4e6 <_ZN11Display16x221PrintTempAndFunStatusEii+0xe>
     4e6:	00 d0       	rcall	.+0      	; 0x4e8 <_ZN11Display16x221PrintTempAndFunStatusEii+0x10>
     4e8:	00 d0       	rcall	.+0      	; 0x4ea <_ZN11Display16x221PrintTempAndFunStatusEii+0x12>
     4ea:	cd b7       	in	r28, 0x3d	; 61
     4ec:	de b7       	in	r29, 0x3e	; 62
     4ee:	7b 01       	movw	r14, r22
     4f0:	8a 01       	movw	r16, r20
	lcd.setCursor(0,0);
     4f2:	40 e0       	ldi	r20, 0x00	; 0
     4f4:	60 e0       	ldi	r22, 0x00	; 0
     4f6:	84 e9       	ldi	r24, 0x94	; 148
     4f8:	92 e0       	ldi	r25, 0x02	; 2
     4fa:	0e 94 b0 11 	call	0x2360	; 0x2360 <_ZN17LiquidCrystal_I2C9setCursorEhh>
	lcd.print("t=");
     4fe:	6d e6       	ldi	r22, 0x6D	; 109
     500:	71 e0       	ldi	r23, 0x01	; 1
     502:	84 e9       	ldi	r24, 0x94	; 148
     504:	92 e0       	ldi	r25, 0x02	; 2
     506:	0e 94 2d 1b 	call	0x365a	; 0x365a <_ZN5Print5printEPKc>
	lcd.setCursor(2,0);
     50a:	40 e0       	ldi	r20, 0x00	; 0
     50c:	62 e0       	ldi	r22, 0x02	; 2
     50e:	84 e9       	ldi	r24, 0x94	; 148
     510:	92 e0       	ldi	r25, 0x02	; 2
     512:	0e 94 b0 11 	call	0x2360	; 0x2360 <_ZN17LiquidCrystal_I2C9setCursorEhh>
	if(temp<-55)
     516:	89 ec       	ldi	r24, 0xC9	; 201
     518:	e8 16       	cp	r14, r24
     51a:	8f ef       	ldi	r24, 0xFF	; 255
     51c:	f8 06       	cpc	r15, r24
     51e:	1c f4       	brge	.+6      	; 0x526 <_ZN11Display16x221PrintTempAndFunStatusEii+0x4e>
	{
		lcd.print("non ");
     520:	60 e7       	ldi	r22, 0x70	; 112
     522:	71 e0       	ldi	r23, 0x01	; 1
     524:	18 c0       	rjmp	.+48     	; 0x556 <_ZN11Display16x221PrintTempAndFunStatusEii+0x7e>
	}
	else
	{
		lcd.print(ValueToDisplyStr(temp));
     526:	b7 01       	movw	r22, r14
     528:	ce 01       	movw	r24, r28
     52a:	01 96       	adiw	r24, 0x01	; 1
     52c:	0e 94 2d 02 	call	0x45a	; 0x45a <_ZN8IDisplay16ValueToDisplyStrEi.isra.2>
     530:	be 01       	movw	r22, r28
     532:	6f 5f       	subi	r22, 0xFF	; 255
     534:	7f 4f       	sbci	r23, 0xFF	; 255
     536:	84 e9       	ldi	r24, 0x94	; 148
     538:	92 e0       	ldi	r25, 0x02	; 2
     53a:	0e 94 1f 1b 	call	0x363e	; 0x363e <_ZN5Print5printERK6String>
     53e:	ce 01       	movw	r24, r28
     540:	01 96       	adiw	r24, 0x01	; 1
     542:	0e 94 74 1e 	call	0x3ce8	; 0x3ce8 <_ZN6StringD1Ev>
		lcd.setCursor(5,0);
     546:	40 e0       	ldi	r20, 0x00	; 0
     548:	65 e0       	ldi	r22, 0x05	; 5
     54a:	84 e9       	ldi	r24, 0x94	; 148
     54c:	92 e0       	ldi	r25, 0x02	; 2
     54e:	0e 94 b0 11 	call	0x2360	; 0x2360 <_ZN17LiquidCrystal_I2C9setCursorEhh>
		lcd.print("C");
     552:	6d e4       	ldi	r22, 0x4D	; 77
     554:	71 e0       	ldi	r23, 0x01	; 1
     556:	84 e9       	ldi	r24, 0x94	; 148
     558:	92 e0       	ldi	r25, 0x02	; 2
     55a:	0e 94 2d 1b 	call	0x365a	; 0x365a <_ZN5Print5printEPKc>
	}
	
	lcd.setCursor(8,0);
     55e:	40 e0       	ldi	r20, 0x00	; 0
     560:	68 e0       	ldi	r22, 0x08	; 8
     562:	84 e9       	ldi	r24, 0x94	; 148
     564:	92 e0       	ldi	r25, 0x02	; 2
     566:	0e 94 b0 11 	call	0x2360	; 0x2360 <_ZN17LiquidCrystal_I2C9setCursorEhh>
	lcd.print("Fun=");
     56a:	65 e7       	ldi	r22, 0x75	; 117
     56c:	71 e0       	ldi	r23, 0x01	; 1
     56e:	84 e9       	ldi	r24, 0x94	; 148
     570:	92 e0       	ldi	r25, 0x02	; 2
     572:	0e 94 2d 1b 	call	0x365a	; 0x365a <_ZN5Print5printEPKc>
	lcd.setCursor(12,0);
     576:	40 e0       	ldi	r20, 0x00	; 0
     578:	6c e0       	ldi	r22, 0x0C	; 12
     57a:	84 e9       	ldi	r24, 0x94	; 148
     57c:	92 e0       	ldi	r25, 0x02	; 2
     57e:	0e 94 b0 11 	call	0x2360	; 0x2360 <_ZN17LiquidCrystal_I2C9setCursorEhh>
	if(funPower == 0)
     582:	01 15       	cp	r16, r1
     584:	11 05       	cpc	r17, r1
     586:	19 f4       	brne	.+6      	; 0x58e <_ZN11Display16x221PrintTempAndFunStatusEii+0xb6>
	{
		lcd.print("OFF ");
     588:	6a e7       	ldi	r22, 0x7A	; 122
     58a:	71 e0       	ldi	r23, 0x01	; 1
     58c:	18 c0       	rjmp	.+48     	; 0x5be <_ZN11Display16x221PrintTempAndFunStatusEii+0xe6>
	}
	else
	{
		lcd.print(ValueToDisplyStr(funPower));
     58e:	b8 01       	movw	r22, r16
     590:	ce 01       	movw	r24, r28
     592:	01 96       	adiw	r24, 0x01	; 1
     594:	0e 94 2d 02 	call	0x45a	; 0x45a <_ZN8IDisplay16ValueToDisplyStrEi.isra.2>
     598:	be 01       	movw	r22, r28
     59a:	6f 5f       	subi	r22, 0xFF	; 255
     59c:	7f 4f       	sbci	r23, 0xFF	; 255
     59e:	84 e9       	ldi	r24, 0x94	; 148
     5a0:	92 e0       	ldi	r25, 0x02	; 2
     5a2:	0e 94 1f 1b 	call	0x363e	; 0x363e <_ZN5Print5printERK6String>
     5a6:	ce 01       	movw	r24, r28
     5a8:	01 96       	adiw	r24, 0x01	; 1
     5aa:	0e 94 74 1e 	call	0x3ce8	; 0x3ce8 <_ZN6StringD1Ev>
		lcd.setCursor(15,0);
     5ae:	40 e0       	ldi	r20, 0x00	; 0
     5b0:	6f e0       	ldi	r22, 0x0F	; 15
     5b2:	84 e9       	ldi	r24, 0x94	; 148
     5b4:	92 e0       	ldi	r25, 0x02	; 2
     5b6:	0e 94 b0 11 	call	0x2360	; 0x2360 <_ZN17LiquidCrystal_I2C9setCursorEhh>
		lcd.print("%");
     5ba:	6f e7       	ldi	r22, 0x7F	; 127
     5bc:	71 e0       	ldi	r23, 0x01	; 1
     5be:	84 e9       	ldi	r24, 0x94	; 148
     5c0:	92 e0       	ldi	r25, 0x02	; 2
     5c2:	0e 94 2d 1b 	call	0x365a	; 0x365a <_ZN5Print5printEPKc>
	}
}
     5c6:	26 96       	adiw	r28, 0x06	; 6
     5c8:	0f b6       	in	r0, 0x3f	; 63
     5ca:	f8 94       	cli
     5cc:	de bf       	out	0x3e, r29	; 62
     5ce:	0f be       	out	0x3f, r0	; 63
     5d0:	cd bf       	out	0x3d, r28	; 61
     5d2:	df 91       	pop	r29
     5d4:	cf 91       	pop	r28
     5d6:	1f 91       	pop	r17
     5d8:	0f 91       	pop	r16
     5da:	ff 90       	pop	r15
     5dc:	ef 90       	pop	r14
     5de:	08 95       	ret

000005e0 <_ZN8IDisplay16ValueToDisplyStrEf>:
	virtual	void Write(int)=0;
	virtual void PrintProgressBar(int, int)=0;
	virtual void PrintTempAndFunStatus(int, int)=0;
	virtual void PowerPrint(float) = 0;
	protected :
	String ValueToDisplyStr(float val)
     5e0:	af 92       	push	r10
     5e2:	bf 92       	push	r11
     5e4:	cf 92       	push	r12
     5e6:	df 92       	push	r13
     5e8:	ef 92       	push	r14
     5ea:	ff 92       	push	r15
     5ec:	0f 93       	push	r16
     5ee:	1f 93       	push	r17
     5f0:	cf 93       	push	r28
     5f2:	df 93       	push	r29
     5f4:	cd b7       	in	r28, 0x3d	; 61
     5f6:	de b7       	in	r29, 0x3e	; 62
     5f8:	2c 97       	sbiw	r28, 0x0c	; 12
     5fa:	0f b6       	in	r0, 0x3f	; 63
     5fc:	f8 94       	cli
     5fe:	de bf       	out	0x3e, r29	; 62
     600:	0f be       	out	0x3f, r0	; 63
     602:	cd bf       	out	0x3d, r28	; 61
     604:	8c 01       	movw	r16, r24
     606:	69 01       	movw	r12, r18
     608:	7a 01       	movw	r14, r20
	{
		String result ="";
     60a:	6c e6       	ldi	r22, 0x6C	; 108
     60c:	71 e0       	ldi	r23, 0x01	; 1
     60e:	0e 94 e2 1e 	call	0x3dc4	; 0x3dc4 <_ZN6StringC1EPKc>
		int va = val*10;
     612:	20 e0       	ldi	r18, 0x00	; 0
     614:	30 e0       	ldi	r19, 0x00	; 0
     616:	40 e2       	ldi	r20, 0x20	; 32
     618:	51 e4       	ldi	r21, 0x41	; 65
     61a:	c7 01       	movw	r24, r14
     61c:	b6 01       	movw	r22, r12
     61e:	0e 94 5f 1a 	call	0x34be	; 0x34be <__mulsf3>
     622:	0e 94 72 19 	call	0x32e4	; 0x32e4 <__fixsfsi>
		result = String(va/10, DEC);
     626:	cb 01       	movw	r24, r22
     628:	6a e0       	ldi	r22, 0x0A	; 10
     62a:	70 e0       	ldi	r23, 0x00	; 0
     62c:	0e 94 f2 1f 	call	0x3fe4	; 0x3fe4 <__divmodhi4>
     630:	5c 01       	movw	r10, r24
     632:	4a e0       	ldi	r20, 0x0A	; 10
     634:	ce 01       	movw	r24, r28
     636:	01 96       	adiw	r24, 0x01	; 1
     638:	0e 94 6e 1f 	call	0x3edc	; 0x3edc <_ZN6StringC1Eih>
     63c:	be 01       	movw	r22, r28
     63e:	6f 5f       	subi	r22, 0xFF	; 255
     640:	7f 4f       	sbci	r23, 0xFF	; 255
     642:	c8 01       	movw	r24, r16
     644:	0e 94 4b 1f 	call	0x3e96	; 0x3e96 <_ZN6StringaSEOS_>
     648:	ce 01       	movw	r24, r28
     64a:	01 96       	adiw	r24, 0x01	; 1
     64c:	0e 94 74 1e 	call	0x3ce8	; 0x3ce8 <_ZN6StringD1Ev>
     650:	f8 01       	movw	r30, r16
     652:	84 81       	ldd	r24, Z+4	; 0x04
     654:	95 81       	ldd	r25, Z+5	; 0x05
		if(result.length()==2)
     656:	82 30       	cpi	r24, 0x02	; 2
     658:	91 05       	cpc	r25, r1
     65a:	a1 f4       	brne	.+40     	; 0x684 <_ZN8IDisplay16ValueToDisplyStrEf+0xa4>
     65c:	61 e8       	ldi	r22, 0x81	; 129
     65e:	71 e0       	ldi	r23, 0x01	; 1
     660:	c8 01       	movw	r24, r16
     662:	0e 94 cf 1f 	call	0x3f9e	; 0x3f9e <_ZN6String6concatEPKc>
		{
			result += ".";
			result += String(va%10, DEC);
     666:	4a e0       	ldi	r20, 0x0A	; 10
     668:	b5 01       	movw	r22, r10
     66a:	ce 01       	movw	r24, r28
     66c:	01 96       	adiw	r24, 0x01	; 1
     66e:	0e 94 6e 1f 	call	0x3edc	; 0x3edc <_ZN6StringC1Eih>
	unsigned char concat(double num);
	unsigned char concat(const __FlashStringHelper * str);

	// if there's not enough memory for the concatenated value, the string
	// will be left unchanged (but this isn't signalled in any way)
	String & operator += (const String &rhs)	{concat(rhs); return (*this);}
     672:	be 01       	movw	r22, r28
     674:	6f 5f       	subi	r22, 0xFF	; 255
     676:	7f 4f       	sbci	r23, 0xFF	; 255
     678:	c8 01       	movw	r24, r16
     67a:	0e 94 c8 1f 	call	0x3f90	; 0x3f90 <_ZN6String6concatERKS_>
     67e:	ce 01       	movw	r24, r28
     680:	01 96       	adiw	r24, 0x01	; 1
     682:	3e c0       	rjmp	.+124    	; 0x700 <_ZN8IDisplay16ValueToDisplyStrEf+0x120>
		}
		else if(result.length()<2)
     684:	02 97       	sbiw	r24, 0x02	; 2
     686:	f0 f5       	brcc	.+124    	; 0x704 <_ZN8IDisplay16ValueToDisplyStrEf+0x124>
	String & operator += (const char *cstr)		{concat(cstr); return (*this);}
     688:	61 e8       	ldi	r22, 0x81	; 129
     68a:	71 e0       	ldi	r23, 0x01	; 1
     68c:	c8 01       	movw	r24, r16
     68e:	0e 94 cf 1f 	call	0x3f9e	; 0x3f9e <_ZN6String6concatEPKc>
		{
			result += ".";
			va = val*100;
			String drop = String(va%100, DEC);
     692:	20 e0       	ldi	r18, 0x00	; 0
     694:	30 e0       	ldi	r19, 0x00	; 0
     696:	48 ec       	ldi	r20, 0xC8	; 200
     698:	52 e4       	ldi	r21, 0x42	; 66
     69a:	c7 01       	movw	r24, r14
     69c:	b6 01       	movw	r22, r12
     69e:	0e 94 5f 1a 	call	0x34be	; 0x34be <__mulsf3>
     6a2:	0e 94 72 19 	call	0x32e4	; 0x32e4 <__fixsfsi>
     6a6:	cb 01       	movw	r24, r22
     6a8:	64 e6       	ldi	r22, 0x64	; 100
     6aa:	70 e0       	ldi	r23, 0x00	; 0
     6ac:	0e 94 f2 1f 	call	0x3fe4	; 0x3fe4 <__divmodhi4>
     6b0:	4a e0       	ldi	r20, 0x0A	; 10
     6b2:	bc 01       	movw	r22, r24
     6b4:	ce 01       	movw	r24, r28
     6b6:	07 96       	adiw	r24, 0x07	; 7
     6b8:	0e 94 6e 1f 	call	0x3edc	; 0x3edc <_ZN6StringC1Eih>
			if(drop.length() == 1)
     6bc:	8b 85       	ldd	r24, Y+11	; 0x0b
     6be:	9c 85       	ldd	r25, Y+12	; 0x0c
     6c0:	01 97       	sbiw	r24, 0x01	; 1
     6c2:	b1 f4       	brne	.+44     	; 0x6f0 <_ZN8IDisplay16ValueToDisplyStrEf+0x110>

class StringSumHelper : public String
{
public:
	StringSumHelper(const String &s) : String(s) {}
	StringSumHelper(const char *p) : String(p) {}
     6c4:	6e e6       	ldi	r22, 0x6E	; 110
     6c6:	72 e0       	ldi	r23, 0x02	; 2
     6c8:	ce 01       	movw	r24, r28
     6ca:	01 96       	adiw	r24, 0x01	; 1
     6cc:	0e 94 e2 1e 	call	0x3dc4	; 0x3dc4 <_ZN6StringC1EPKc>
			drop="0"+drop;
     6d0:	be 01       	movw	r22, r28
     6d2:	69 5f       	subi	r22, 0xF9	; 249
     6d4:	7f 4f       	sbci	r23, 0xFF	; 255
     6d6:	ce 01       	movw	r24, r28
     6d8:	01 96       	adiw	r24, 0x01	; 1
     6da:	0e 94 de 1f 	call	0x3fbc	; 0x3fbc <_ZplRK15StringSumHelperRK6String>
     6de:	bc 01       	movw	r22, r24
     6e0:	ce 01       	movw	r24, r28
     6e2:	07 96       	adiw	r24, 0x07	; 7
     6e4:	0e 94 34 1f 	call	0x3e68	; 0x3e68 <_ZN6StringaSERKS_>
       #if __cplusplus >= 201103L || defined(__GXX_EXPERIMENTAL_CXX0X__)
	void move(String &rhs);
	#endif
};

class StringSumHelper : public String
     6e8:	ce 01       	movw	r24, r28
     6ea:	01 96       	adiw	r24, 0x01	; 1
     6ec:	0e 94 74 1e 	call	0x3ce8	; 0x3ce8 <_ZN6StringD1Ev>
	unsigned char concat(double num);
	unsigned char concat(const __FlashStringHelper * str);

	// if there's not enough memory for the concatenated value, the string
	// will be left unchanged (but this isn't signalled in any way)
	String & operator += (const String &rhs)	{concat(rhs); return (*this);}
     6f0:	be 01       	movw	r22, r28
     6f2:	69 5f       	subi	r22, 0xF9	; 249
     6f4:	7f 4f       	sbci	r23, 0xFF	; 255
     6f6:	c8 01       	movw	r24, r16
     6f8:	0e 94 c8 1f 	call	0x3f90	; 0x3f90 <_ZN6String6concatERKS_>
		}
		else if(result.length()<2)
		{
			result += ".";
			va = val*100;
			String drop = String(va%100, DEC);
     6fc:	ce 01       	movw	r24, r28
     6fe:	07 96       	adiw	r24, 0x07	; 7
     700:	0e 94 74 1e 	call	0x3ce8	; 0x3ce8 <_ZN6StringD1Ev>
			if(drop.length() == 1)
			drop="0"+drop;
			result += drop;
		}
		if(result.length()==3)
     704:	f8 01       	movw	r30, r16
     706:	84 81       	ldd	r24, Z+4	; 0x04
     708:	95 81       	ldd	r25, Z+5	; 0x05
     70a:	03 97       	sbiw	r24, 0x03	; 3
     70c:	29 f4       	brne	.+10     	; 0x718 <_ZN8IDisplay16ValueToDisplyStrEf+0x138>
	String & operator += (const char *cstr)		{concat(cstr); return (*this);}
     70e:	6b e6       	ldi	r22, 0x6B	; 107
     710:	71 e0       	ldi	r23, 0x01	; 1
     712:	c8 01       	movw	r24, r16
     714:	0e 94 cf 1f 	call	0x3f9e	; 0x3f9e <_ZN6String6concatEPKc>
		{
			result += " ";
		}
		return result;
	}
     718:	c8 01       	movw	r24, r16
     71a:	2c 96       	adiw	r28, 0x0c	; 12
     71c:	0f b6       	in	r0, 0x3f	; 63
     71e:	f8 94       	cli
     720:	de bf       	out	0x3e, r29	; 62
     722:	0f be       	out	0x3f, r0	; 63
     724:	cd bf       	out	0x3d, r28	; 61
     726:	df 91       	pop	r29
     728:	cf 91       	pop	r28
     72a:	1f 91       	pop	r17
     72c:	0f 91       	pop	r16
     72e:	ff 90       	pop	r15
     730:	ef 90       	pop	r14
     732:	df 90       	pop	r13
     734:	cf 90       	pop	r12
     736:	bf 90       	pop	r11
     738:	af 90       	pop	r10
     73a:	08 95       	ret

0000073c <_ZN11Display16x213VoltagesPrintEff>:
	lcd.print(memNum);
}


void Display16x2::VoltagesPrint(float pwmVoltagesValue, float currentVoltagesValue)
{
     73c:	8f 92       	push	r8
     73e:	9f 92       	push	r9
     740:	af 92       	push	r10
     742:	bf 92       	push	r11
     744:	ef 92       	push	r14
     746:	ff 92       	push	r15
     748:	0f 93       	push	r16
     74a:	1f 93       	push	r17
     74c:	cf 93       	push	r28
     74e:	df 93       	push	r29
     750:	00 d0       	rcall	.+0      	; 0x752 <_ZN11Display16x213VoltagesPrintEff+0x16>
     752:	00 d0       	rcall	.+0      	; 0x754 <_ZN11Display16x213VoltagesPrintEff+0x18>
     754:	00 d0       	rcall	.+0      	; 0x756 <_ZN11Display16x213VoltagesPrintEff+0x1a>
     756:	cd b7       	in	r28, 0x3d	; 61
     758:	de b7       	in	r29, 0x3e	; 62
     75a:	7c 01       	movw	r14, r24
     75c:	48 01       	movw	r8, r16
     75e:	59 01       	movw	r10, r18
	//напряжения
	lcd.setCursor(1,0);
     760:	40 e0       	ldi	r20, 0x00	; 0
     762:	61 e0       	ldi	r22, 0x01	; 1
     764:	84 e9       	ldi	r24, 0x94	; 148
     766:	92 e0       	ldi	r25, 0x02	; 2
     768:	0e 94 b0 11 	call	0x2360	; 0x2360 <_ZN17LiquidCrystal_I2C9setCursorEhh>
	lcd.print("U:");
     76c:	63 e8       	ldi	r22, 0x83	; 131
     76e:	71 e0       	ldi	r23, 0x01	; 1
     770:	84 e9       	ldi	r24, 0x94	; 148
     772:	92 e0       	ldi	r25, 0x02	; 2
     774:	0e 94 2d 1b 	call	0x365a	; 0x365a <_ZN5Print5printEPKc>
	lcd.setCursor(3,0);
     778:	40 e0       	ldi	r20, 0x00	; 0
     77a:	63 e0       	ldi	r22, 0x03	; 3
     77c:	84 e9       	ldi	r24, 0x94	; 148
     77e:	92 e0       	ldi	r25, 0x02	; 2
     780:	0e 94 b0 11 	call	0x2360	; 0x2360 <_ZN17LiquidCrystal_I2C9setCursorEhh>
	lcd.print(ValueToDisplyStr(currentVoltagesValue));
     784:	a5 01       	movw	r20, r10
     786:	94 01       	movw	r18, r8
     788:	b7 01       	movw	r22, r14
     78a:	ce 01       	movw	r24, r28
     78c:	01 96       	adiw	r24, 0x01	; 1
     78e:	0e 94 f0 02 	call	0x5e0	; 0x5e0 <_ZN8IDisplay16ValueToDisplyStrEf>
     792:	be 01       	movw	r22, r28
     794:	6f 5f       	subi	r22, 0xFF	; 255
     796:	7f 4f       	sbci	r23, 0xFF	; 255
     798:	84 e9       	ldi	r24, 0x94	; 148
     79a:	92 e0       	ldi	r25, 0x02	; 2
     79c:	0e 94 1f 1b 	call	0x363e	; 0x363e <_ZN5Print5printERK6String>
     7a0:	ce 01       	movw	r24, r28
     7a2:	01 96       	adiw	r24, 0x01	; 1
     7a4:	0e 94 74 1e 	call	0x3ce8	; 0x3ce8 <_ZN6StringD1Ev>
}
     7a8:	26 96       	adiw	r28, 0x06	; 6
     7aa:	0f b6       	in	r0, 0x3f	; 63
     7ac:	f8 94       	cli
     7ae:	de bf       	out	0x3e, r29	; 62
     7b0:	0f be       	out	0x3f, r0	; 63
     7b2:	cd bf       	out	0x3d, r28	; 61
     7b4:	df 91       	pop	r29
     7b6:	cf 91       	pop	r28
     7b8:	1f 91       	pop	r17
     7ba:	0f 91       	pop	r16
     7bc:	ff 90       	pop	r15
     7be:	ef 90       	pop	r14
     7c0:	bf 90       	pop	r11
     7c2:	af 90       	pop	r10
     7c4:	9f 90       	pop	r9
     7c6:	8f 90       	pop	r8
     7c8:	08 95       	ret

000007ca <_ZN11Display16x210PowerPrintEf>:

void Display16x2::PowerPrint(float powerValue)
{
     7ca:	cf 92       	push	r12
     7cc:	df 92       	push	r13
     7ce:	ef 92       	push	r14
     7d0:	ff 92       	push	r15
     7d2:	0f 93       	push	r16
     7d4:	1f 93       	push	r17
     7d6:	cf 93       	push	r28
     7d8:	df 93       	push	r29
     7da:	00 d0       	rcall	.+0      	; 0x7dc <_ZN11Display16x210PowerPrintEf+0x12>
     7dc:	00 d0       	rcall	.+0      	; 0x7de <_ZN11Display16x210PowerPrintEf+0x14>
     7de:	00 d0       	rcall	.+0      	; 0x7e0 <_ZN11Display16x210PowerPrintEf+0x16>
     7e0:	cd b7       	in	r28, 0x3d	; 61
     7e2:	de b7       	in	r29, 0x3e	; 62
     7e4:	8c 01       	movw	r16, r24
     7e6:	6a 01       	movw	r12, r20
     7e8:	7b 01       	movw	r14, r22
	//ваты
	lcd.setCursor(1,1);
     7ea:	41 e0       	ldi	r20, 0x01	; 1
     7ec:	61 e0       	ldi	r22, 0x01	; 1
     7ee:	84 e9       	ldi	r24, 0x94	; 148
     7f0:	92 e0       	ldi	r25, 0x02	; 2
     7f2:	0e 94 b0 11 	call	0x2360	; 0x2360 <_ZN17LiquidCrystal_I2C9setCursorEhh>
	lcd.print("W:");
     7f6:	66 e8       	ldi	r22, 0x86	; 134
     7f8:	71 e0       	ldi	r23, 0x01	; 1
     7fa:	84 e9       	ldi	r24, 0x94	; 148
     7fc:	92 e0       	ldi	r25, 0x02	; 2
     7fe:	0e 94 2d 1b 	call	0x365a	; 0x365a <_ZN5Print5printEPKc>
	lcd.setCursor(3,1);
     802:	41 e0       	ldi	r20, 0x01	; 1
     804:	63 e0       	ldi	r22, 0x03	; 3
     806:	84 e9       	ldi	r24, 0x94	; 148
     808:	92 e0       	ldi	r25, 0x02	; 2
     80a:	0e 94 b0 11 	call	0x2360	; 0x2360 <_ZN17LiquidCrystal_I2C9setCursorEhh>
	lcd.print(ValueToDisplyStr(powerValue));
     80e:	a7 01       	movw	r20, r14
     810:	96 01       	movw	r18, r12
     812:	b8 01       	movw	r22, r16
     814:	ce 01       	movw	r24, r28
     816:	01 96       	adiw	r24, 0x01	; 1
     818:	0e 94 f0 02 	call	0x5e0	; 0x5e0 <_ZN8IDisplay16ValueToDisplyStrEf>
     81c:	be 01       	movw	r22, r28
     81e:	6f 5f       	subi	r22, 0xFF	; 255
     820:	7f 4f       	sbci	r23, 0xFF	; 255
     822:	84 e9       	ldi	r24, 0x94	; 148
     824:	92 e0       	ldi	r25, 0x02	; 2
     826:	0e 94 1f 1b 	call	0x363e	; 0x363e <_ZN5Print5printERK6String>
     82a:	ce 01       	movw	r24, r28
     82c:	01 96       	adiw	r24, 0x01	; 1
     82e:	0e 94 74 1e 	call	0x3ce8	; 0x3ce8 <_ZN6StringD1Ev>
}
     832:	26 96       	adiw	r28, 0x06	; 6
     834:	0f b6       	in	r0, 0x3f	; 63
     836:	f8 94       	cli
     838:	de bf       	out	0x3e, r29	; 62
     83a:	0f be       	out	0x3f, r0	; 63
     83c:	cd bf       	out	0x3d, r28	; 61
     83e:	df 91       	pop	r29
     840:	cf 91       	pop	r28
     842:	1f 91       	pop	r17
     844:	0f 91       	pop	r16
     846:	ff 90       	pop	r15
     848:	ef 90       	pop	r14
     84a:	df 90       	pop	r13
     84c:	cf 90       	pop	r12
     84e:	08 95       	ret

00000850 <_ZN11Display16x214AmperagedPrintEff>:

void Display16x2::AmperagedPrint(float setAmperagedValue, float currentAmperagedValue)
{
     850:	4f 92       	push	r4
     852:	5f 92       	push	r5
     854:	6f 92       	push	r6
     856:	7f 92       	push	r7
     858:	8f 92       	push	r8
     85a:	9f 92       	push	r9
     85c:	af 92       	push	r10
     85e:	bf 92       	push	r11
     860:	ef 92       	push	r14
     862:	ff 92       	push	r15
     864:	0f 93       	push	r16
     866:	1f 93       	push	r17
     868:	cf 93       	push	r28
     86a:	df 93       	push	r29
     86c:	00 d0       	rcall	.+0      	; 0x86e <_ZN11Display16x214AmperagedPrintEff+0x1e>
     86e:	00 d0       	rcall	.+0      	; 0x870 <_ZN11Display16x214AmperagedPrintEff+0x20>
     870:	00 d0       	rcall	.+0      	; 0x872 <_ZN11Display16x214AmperagedPrintEff+0x22>
     872:	cd b7       	in	r28, 0x3d	; 61
     874:	de b7       	in	r29, 0x3e	; 62
     876:	7c 01       	movw	r14, r24
     878:	2a 01       	movw	r4, r20
     87a:	3b 01       	movw	r6, r22
     87c:	48 01       	movw	r8, r16
     87e:	59 01       	movw	r10, r18
	//ток
	lcd.setCursor(10,0);
     880:	40 e0       	ldi	r20, 0x00	; 0
     882:	6a e0       	ldi	r22, 0x0A	; 10
     884:	84 e9       	ldi	r24, 0x94	; 148
     886:	92 e0       	ldi	r25, 0x02	; 2
     888:	0e 94 b0 11 	call	0x2360	; 0x2360 <_ZN17LiquidCrystal_I2C9setCursorEhh>
	lcd.print("I:");
     88c:	69 e8       	ldi	r22, 0x89	; 137
     88e:	71 e0       	ldi	r23, 0x01	; 1
     890:	84 e9       	ldi	r24, 0x94	; 148
     892:	92 e0       	ldi	r25, 0x02	; 2
     894:	0e 94 2d 1b 	call	0x365a	; 0x365a <_ZN5Print5printEPKc>
	lcd.setCursor(12,0);
     898:	40 e0       	ldi	r20, 0x00	; 0
     89a:	6c e0       	ldi	r22, 0x0C	; 12
     89c:	84 e9       	ldi	r24, 0x94	; 148
     89e:	92 e0       	ldi	r25, 0x02	; 2
     8a0:	0e 94 b0 11 	call	0x2360	; 0x2360 <_ZN17LiquidCrystal_I2C9setCursorEhh>
	lcd.print(ValueToDisplyStr(setAmperagedValue));
     8a4:	a3 01       	movw	r20, r6
     8a6:	92 01       	movw	r18, r4
     8a8:	b7 01       	movw	r22, r14
     8aa:	ce 01       	movw	r24, r28
     8ac:	01 96       	adiw	r24, 0x01	; 1
     8ae:	0e 94 f0 02 	call	0x5e0	; 0x5e0 <_ZN8IDisplay16ValueToDisplyStrEf>
     8b2:	be 01       	movw	r22, r28
     8b4:	6f 5f       	subi	r22, 0xFF	; 255
     8b6:	7f 4f       	sbci	r23, 0xFF	; 255
     8b8:	84 e9       	ldi	r24, 0x94	; 148
     8ba:	92 e0       	ldi	r25, 0x02	; 2
     8bc:	0e 94 1f 1b 	call	0x363e	; 0x363e <_ZN5Print5printERK6String>
     8c0:	ce 01       	movw	r24, r28
     8c2:	01 96       	adiw	r24, 0x01	; 1
     8c4:	0e 94 74 1e 	call	0x3ce8	; 0x3ce8 <_ZN6StringD1Ev>
	lcd.setCursor(10,1);
     8c8:	41 e0       	ldi	r20, 0x01	; 1
     8ca:	6a e0       	ldi	r22, 0x0A	; 10
     8cc:	84 e9       	ldi	r24, 0x94	; 148
     8ce:	92 e0       	ldi	r25, 0x02	; 2
     8d0:	0e 94 b0 11 	call	0x2360	; 0x2360 <_ZN17LiquidCrystal_I2C9setCursorEhh>
	lcd.print("I:");
     8d4:	69 e8       	ldi	r22, 0x89	; 137
     8d6:	71 e0       	ldi	r23, 0x01	; 1
     8d8:	84 e9       	ldi	r24, 0x94	; 148
     8da:	92 e0       	ldi	r25, 0x02	; 2
     8dc:	0e 94 2d 1b 	call	0x365a	; 0x365a <_ZN5Print5printEPKc>
	lcd.setCursor(12,1);
     8e0:	41 e0       	ldi	r20, 0x01	; 1
     8e2:	6c e0       	ldi	r22, 0x0C	; 12
     8e4:	84 e9       	ldi	r24, 0x94	; 148
     8e6:	92 e0       	ldi	r25, 0x02	; 2
     8e8:	0e 94 b0 11 	call	0x2360	; 0x2360 <_ZN17LiquidCrystal_I2C9setCursorEhh>
	lcd.print(ValueToDisplyStr(currentAmperagedValue));
     8ec:	a5 01       	movw	r20, r10
     8ee:	94 01       	movw	r18, r8
     8f0:	b7 01       	movw	r22, r14
     8f2:	ce 01       	movw	r24, r28
     8f4:	01 96       	adiw	r24, 0x01	; 1
     8f6:	0e 94 f0 02 	call	0x5e0	; 0x5e0 <_ZN8IDisplay16ValueToDisplyStrEf>
     8fa:	be 01       	movw	r22, r28
     8fc:	6f 5f       	subi	r22, 0xFF	; 255
     8fe:	7f 4f       	sbci	r23, 0xFF	; 255
     900:	84 e9       	ldi	r24, 0x94	; 148
     902:	92 e0       	ldi	r25, 0x02	; 2
     904:	0e 94 1f 1b 	call	0x363e	; 0x363e <_ZN5Print5printERK6String>
     908:	ce 01       	movw	r24, r28
     90a:	01 96       	adiw	r24, 0x01	; 1
     90c:	0e 94 74 1e 	call	0x3ce8	; 0x3ce8 <_ZN6StringD1Ev>
}
     910:	26 96       	adiw	r28, 0x06	; 6
     912:	0f b6       	in	r0, 0x3f	; 63
     914:	f8 94       	cli
     916:	de bf       	out	0x3e, r29	; 62
     918:	0f be       	out	0x3f, r0	; 63
     91a:	cd bf       	out	0x3d, r28	; 61
     91c:	df 91       	pop	r29
     91e:	cf 91       	pop	r28
     920:	1f 91       	pop	r17
     922:	0f 91       	pop	r16
     924:	ff 90       	pop	r15
     926:	ef 90       	pop	r14
     928:	bf 90       	pop	r11
     92a:	af 90       	pop	r10
     92c:	9f 90       	pop	r9
     92e:	8f 90       	pop	r8
     930:	7f 90       	pop	r7
     932:	6f 90       	pop	r6
     934:	5f 90       	pop	r5
     936:	4f 90       	pop	r4
     938:	08 95       	ret

0000093a <_ZN11Display16x2C1Ev>:
		lcd.print("%");
	}
}

// default constructor
Display16x2::Display16x2()
     93a:	20 e9       	ldi	r18, 0x90	; 144
     93c:	31 e0       	ldi	r19, 0x01	; 1
     93e:	fc 01       	movw	r30, r24
     940:	31 83       	std	Z+1, r19	; 0x01
     942:	20 83       	st	Z, r18
     944:	08 95       	ret

00000946 <_GLOBAL__sub_I_lcd>:
} //Display

// default destructor
Display16x2::~Display16x2()
{
} //~Display
     946:	0f 93       	push	r16
#include <LiquidCrystal_I2C.h>
#include "ModeEnum.h"
#include "..\..\ArduinoCore\include\core\Arduino.h"

// продключение дисплея
LiquidCrystal_I2C  lcd (0x27, 16, 2);//параметры дисплея
     948:	00 e0       	ldi	r16, 0x00	; 0
     94a:	22 e0       	ldi	r18, 0x02	; 2
     94c:	40 e1       	ldi	r20, 0x10	; 16
     94e:	67 e2       	ldi	r22, 0x27	; 39
     950:	84 e9       	ldi	r24, 0x94	; 148
     952:	92 e0       	ldi	r25, 0x02	; 2
     954:	0e 94 3b 11 	call	0x2276	; 0x2276 <_ZN17LiquidCrystal_I2CC1Ehhhh>
} //Display

// default destructor
Display16x2::~Display16x2()
{
} //~Display
     958:	0f 91       	pop	r16
     95a:	08 95       	ret

0000095c <_ZN11Display16x25WriteEi>:
	lcd.clear();
}

void Display16x2::Write(int value)
{
	lcd.write(value);
     95c:	84 e9       	ldi	r24, 0x94	; 148
     95e:	92 e0       	ldi	r25, 0x02	; 2
     960:	0c 94 e6 11 	jmp	0x23cc	; 0x23cc <_ZN17LiquidCrystal_I2C5writeEh>

00000964 <_ZN11Display16x216PrintProgressBarEii>:
}

void  Display16x2::PrintProgressBar(int line, int procent)
{
     964:	cf 92       	push	r12
     966:	df 92       	push	r13
     968:	ef 92       	push	r14
     96a:	ff 92       	push	r15
     96c:	1f 93       	push	r17
     96e:	cf 93       	push	r28
     970:	df 93       	push	r29
     972:	16 2f       	mov	r17, r22
	int progress = round(((float)16*(float)min(procent,100))/(float)100);
     974:	45 36       	cpi	r20, 0x65	; 101
     976:	51 05       	cpc	r21, r1
     978:	14 f0       	brlt	.+4      	; 0x97e <_ZN11Display16x216PrintProgressBarEii+0x1a>
     97a:	44 e6       	ldi	r20, 0x64	; 100
     97c:	50 e0       	ldi	r21, 0x00	; 0
     97e:	ba 01       	movw	r22, r20
     980:	55 0f       	add	r21, r21
     982:	88 0b       	sbc	r24, r24
     984:	99 0b       	sbc	r25, r25
     986:	0e 94 aa 19 	call	0x3354	; 0x3354 <__floatsisf>
     98a:	20 e0       	ldi	r18, 0x00	; 0
     98c:	30 e0       	ldi	r19, 0x00	; 0
     98e:	40 e8       	ldi	r20, 0x80	; 128
     990:	51 e4       	ldi	r21, 0x41	; 65
     992:	0e 94 5f 1a 	call	0x34be	; 0x34be <__mulsf3>
     996:	20 e0       	ldi	r18, 0x00	; 0
     998:	30 e0       	ldi	r19, 0x00	; 0
     99a:	48 ec       	ldi	r20, 0xC8	; 200
     99c:	52 e4       	ldi	r21, 0x42	; 66
     99e:	0e 94 00 19 	call	0x3200	; 0x3200 <__divsf3>
     9a2:	6b 01       	movw	r12, r22
     9a4:	7c 01       	movw	r14, r24
     9a6:	20 e0       	ldi	r18, 0x00	; 0
     9a8:	30 e0       	ldi	r19, 0x00	; 0
     9aa:	a9 01       	movw	r20, r18
     9ac:	0e 94 5a 1a 	call	0x34b4	; 0x34b4 <__gesf2>
     9b0:	20 e0       	ldi	r18, 0x00	; 0
     9b2:	30 e0       	ldi	r19, 0x00	; 0
     9b4:	40 e0       	ldi	r20, 0x00	; 0
     9b6:	5f e3       	ldi	r21, 0x3F	; 63
     9b8:	87 fd       	sbrc	r24, 7
     9ba:	05 c0       	rjmp	.+10     	; 0x9c6 <_ZN11Display16x216PrintProgressBarEii+0x62>
     9bc:	c7 01       	movw	r24, r14
     9be:	b6 01       	movw	r22, r12
     9c0:	0e 94 8f 18 	call	0x311e	; 0x311e <__addsf3>
     9c4:	04 c0       	rjmp	.+8      	; 0x9ce <_ZN11Display16x216PrintProgressBarEii+0x6a>
     9c6:	c7 01       	movw	r24, r14
     9c8:	b6 01       	movw	r22, r12
     9ca:	0e 94 8e 18 	call	0x311c	; 0x311c <__subsf3>
     9ce:	0e 94 72 19 	call	0x32e4	; 0x32e4 <__fixsfsi>
     9d2:	eb 01       	movw	r28, r22
	for(int i=0; i<progress;i++)
     9d4:	e1 2c       	mov	r14, r1
     9d6:	f1 2c       	mov	r15, r1
     9d8:	ec 16       	cp	r14, r28
     9da:	fd 06       	cpc	r15, r29
     9dc:	24 f0       	brlt	.+8      	; 0x9e6 <_ZN11Display16x216PrintProgressBarEii+0x82>
     9de:	8f e0       	ldi	r24, 0x0F	; 15
     9e0:	e8 2e       	mov	r14, r24
     9e2:	f1 2c       	mov	r15, r1
     9e4:	0f c0       	rjmp	.+30     	; 0xa04 <_ZN11Display16x216PrintProgressBarEii+0xa0>
	{
		lcd.setCursor(i,line);
     9e6:	41 2f       	mov	r20, r17
     9e8:	6e 2d       	mov	r22, r14
     9ea:	84 e9       	ldi	r24, 0x94	; 148
     9ec:	92 e0       	ldi	r25, 0x02	; 2
     9ee:	0e 94 b0 11 	call	0x2360	; 0x2360 <_ZN17LiquidCrystal_I2C9setCursorEhh>
		lcd.write(0xFF);
     9f2:	6f ef       	ldi	r22, 0xFF	; 255
     9f4:	84 e9       	ldi	r24, 0x94	; 148
     9f6:	92 e0       	ldi	r25, 0x02	; 2
     9f8:	0e 94 e6 11 	call	0x23cc	; 0x23cc <_ZN17LiquidCrystal_I2C5writeEh>
}

void  Display16x2::PrintProgressBar(int line, int procent)
{
	int progress = round(((float)16*(float)min(procent,100))/(float)100);
	for(int i=0; i<progress;i++)
     9fc:	8f ef       	ldi	r24, 0xFF	; 255
     9fe:	e8 1a       	sub	r14, r24
     a00:	f8 0a       	sbc	r15, r24
     a02:	ea cf       	rjmp	.-44     	; 0x9d8 <_ZN11Display16x216PrintProgressBarEii+0x74>
	{
		lcd.setCursor(i,line);
		lcd.write(0xFF);
	}
	
	for(int i=15; i>= progress;i--)
     a04:	ec 16       	cp	r14, r28
     a06:	fd 06       	cpc	r15, r29
     a08:	84 f0       	brlt	.+32     	; 0xa2a <_ZN11Display16x216PrintProgressBarEii+0xc6>
	{
		lcd.setCursor(i,line);
     a0a:	41 2f       	mov	r20, r17
     a0c:	6e 2d       	mov	r22, r14
     a0e:	84 e9       	ldi	r24, 0x94	; 148
     a10:	92 e0       	ldi	r25, 0x02	; 2
     a12:	0e 94 b0 11 	call	0x2360	; 0x2360 <_ZN17LiquidCrystal_I2C9setCursorEhh>
		lcd.print(" ");
     a16:	6b e6       	ldi	r22, 0x6B	; 107
     a18:	71 e0       	ldi	r23, 0x01	; 1
     a1a:	84 e9       	ldi	r24, 0x94	; 148
     a1c:	92 e0       	ldi	r25, 0x02	; 2
     a1e:	0e 94 2d 1b 	call	0x365a	; 0x365a <_ZN5Print5printEPKc>
	{
		lcd.setCursor(i,line);
		lcd.write(0xFF);
	}
	
	for(int i=15; i>= progress;i--)
     a22:	81 e0       	ldi	r24, 0x01	; 1
     a24:	e8 1a       	sub	r14, r24
     a26:	f1 08       	sbc	r15, r1
     a28:	ed cf       	rjmp	.-38     	; 0xa04 <_ZN11Display16x216PrintProgressBarEii+0xa0>
	{
		lcd.setCursor(i,line);
		lcd.print(" ");
	}
}
     a2a:	df 91       	pop	r29
     a2c:	cf 91       	pop	r28
     a2e:	1f 91       	pop	r17
     a30:	ff 90       	pop	r15
     a32:	ef 90       	pop	r14
     a34:	df 90       	pop	r13
     a36:	cf 90       	pop	r12
     a38:	08 95       	ret

00000a3a <_ZN7FunModeD1Ev>:
*/
#include "FunMode.h"
#include "..\CoolerMotor\LinarCoolerMotor.h"

// default constructor
FunMode::FunMode(){} //FunMode
     a3a:	08 95       	ret

00000a3c <_ZN7FunMode11GetTypeModeEv>:
     a3c:	85 e0       	ldi	r24, 0x05	; 5
     a3e:	90 e0       	ldi	r25, 0x00	; 0
     a40:	08 95       	ret

00000a42 <_ZN7FunMode10PrintStateEv>:
     a42:	dc 01       	movw	r26, r24
     a44:	54 96       	adiw	r26, 0x14	; 20
     a46:	8d 91       	ld	r24, X+
     a48:	9c 91       	ld	r25, X
     a4a:	55 97       	sbiw	r26, 0x15	; 21
     a4c:	dc 01       	movw	r26, r24
     a4e:	ed 91       	ld	r30, X+
     a50:	fc 91       	ld	r31, X
     a52:	04 88       	ldd	r0, Z+20	; 0x14
     a54:	f5 89       	ldd	r31, Z+21	; 0x15
     a56:	e0 2d       	mov	r30, r0
     a58:	09 94       	ijmp

00000a5a <_ZN7FunMode10ReadEEPROMEv>:
     a5a:	08 95       	ret

00000a5c <_ZN7FunMode8WritePWMEv>:
     a5c:	cf 93       	push	r28
     a5e:	df 93       	push	r29
     a60:	ec 01       	movw	r28, r24
     a62:	ae 89       	ldd	r26, Y+22	; 0x16
     a64:	bf 89       	ldd	r27, Y+23	; 0x17
     a66:	e8 8d       	ldd	r30, Y+24	; 0x18
     a68:	f9 8d       	ldd	r31, Y+25	; 0x19
     a6a:	60 81       	ld	r22, Z
     a6c:	71 81       	ldd	r23, Z+1	; 0x01
     a6e:	ed 91       	ld	r30, X+
     a70:	fc 91       	ld	r31, X
     a72:	11 97       	sbiw	r26, 0x01	; 1
     a74:	04 80       	ldd	r0, Z+4	; 0x04
     a76:	f5 81       	ldd	r31, Z+5	; 0x05
     a78:	e0 2d       	mov	r30, r0
     a7a:	cd 01       	movw	r24, r26
     a7c:	df 91       	pop	r29
     a7e:	cf 91       	pop	r28
     a80:	09 94       	ijmp

00000a82 <_ZN7FunMode9PrintModeEv>:
     a82:	0f 93       	push	r16
     a84:	1f 93       	push	r17
     a86:	cf 93       	push	r28
     a88:	df 93       	push	r29
     a8a:	ec 01       	movw	r28, r24
     a8c:	ec 89       	ldd	r30, Y+20	; 0x14
     a8e:	fd 89       	ldd	r31, Y+21	; 0x15
     a90:	01 90       	ld	r0, Z+
     a92:	f0 81       	ld	r31, Z
     a94:	e0 2d       	mov	r30, r0
     a96:	00 a1       	ldd	r16, Z+32	; 0x20
     a98:	11 a1       	ldd	r17, Z+33	; 0x21
     a9a:	8e 89       	ldd	r24, Y+22	; 0x16
     a9c:	9f 89       	ldd	r25, Y+23	; 0x17
     a9e:	dc 01       	movw	r26, r24
     aa0:	ed 91       	ld	r30, X+
     aa2:	fc 91       	ld	r31, X
     aa4:	06 80       	ldd	r0, Z+6	; 0x06
     aa6:	f7 81       	ldd	r31, Z+7	; 0x07
     aa8:	e0 2d       	mov	r30, r0
     aaa:	09 95       	icall
     aac:	e8 8d       	ldd	r30, Y+24	; 0x18
     aae:	f9 8d       	ldd	r31, Y+25	; 0x19
     ab0:	60 81       	ld	r22, Z
     ab2:	71 81       	ldd	r23, Z+1	; 0x01
     ab4:	ac 01       	movw	r20, r24
     ab6:	8c 89       	ldd	r24, Y+20	; 0x14
     ab8:	9d 89       	ldd	r25, Y+21	; 0x15
     aba:	f8 01       	movw	r30, r16
     abc:	09 95       	icall
     abe:	ec 89       	ldd	r30, Y+20	; 0x14
     ac0:	fd 89       	ldd	r31, Y+21	; 0x15
     ac2:	01 90       	ld	r0, Z+
     ac4:	f0 81       	ld	r31, Z
     ac6:	e0 2d       	mov	r30, r0
     ac8:	06 8d       	ldd	r16, Z+30	; 0x1e
     aca:	17 8d       	ldd	r17, Z+31	; 0x1f
     acc:	8e 89       	ldd	r24, Y+22	; 0x16
     ace:	9f 89       	ldd	r25, Y+23	; 0x17
     ad0:	dc 01       	movw	r26, r24
     ad2:	ed 91       	ld	r30, X+
     ad4:	fc 91       	ld	r31, X
     ad6:	06 80       	ldd	r0, Z+6	; 0x06
     ad8:	f7 81       	ldd	r31, Z+7	; 0x07
     ada:	e0 2d       	mov	r30, r0
     adc:	09 95       	icall
     ade:	ac 01       	movw	r20, r24
     ae0:	61 e0       	ldi	r22, 0x01	; 1
     ae2:	70 e0       	ldi	r23, 0x00	; 0
     ae4:	8c 89       	ldd	r24, Y+20	; 0x14
     ae6:	9d 89       	ldd	r25, Y+21	; 0x15
     ae8:	f8 01       	movw	r30, r16
     aea:	df 91       	pop	r29
     aec:	cf 91       	pop	r28
     aee:	1f 91       	pop	r17
     af0:	0f 91       	pop	r16
     af2:	09 94       	ijmp

00000af4 <_ZN7FunMode15ReadPWMInEepromE10ButtonEnum>:
     af4:	08 95       	ret

00000af6 <_ZN7FunModeD0Ev>:
     af6:	0c 94 de 1a 	jmp	0x35bc	; 0x35bc <_ZdlPv>

00000afa <_ZN7FunModeC1EP8IDisplayPi>:

FunMode::FunMode(IDisplay* display, int* temp)
     afa:	ef 92       	push	r14
     afc:	ff 92       	push	r15
     afe:	0f 93       	push	r16
     b00:	1f 93       	push	r17
     b02:	cf 93       	push	r28
     b04:	df 93       	push	r29
     b06:	ec 01       	movw	r28, r24
     b08:	7a 01       	movw	r14, r20
 
#ifndef __IMODE_H__
#define __IMODE_H__


class IMode
     b0a:	8f ef       	ldi	r24, 0xFF	; 255
     b0c:	9f ef       	ldi	r25, 0xFF	; 255
     b0e:	9b 83       	std	Y+3, r25	; 0x03
     b10:	8a 83       	std	Y+2, r24	; 0x02
     b12:	1d 82       	std	Y+5, r1	; 0x05
     b14:	1c 82       	std	Y+4, r1	; 0x04
     b16:	9f 83       	std	Y+7, r25	; 0x07
     b18:	8e 83       	std	Y+6, r24	; 0x06
     b1a:	00 e0       	ldi	r16, 0x00	; 0
     b1c:	10 e0       	ldi	r17, 0x00	; 0
     b1e:	20 e8       	ldi	r18, 0x80	; 128
     b20:	3f eb       	ldi	r19, 0xBF	; 191
     b22:	08 87       	std	Y+8, r16	; 0x08
     b24:	19 87       	std	Y+9, r17	; 0x09
     b26:	2a 87       	std	Y+10, r18	; 0x0a
     b28:	3b 87       	std	Y+11, r19	; 0x0b
     b2a:	9d 87       	std	Y+13, r25	; 0x0d
     b2c:	8c 87       	std	Y+12, r24	; 0x0c
     b2e:	80 e0       	ldi	r24, 0x00	; 0
     b30:	94 e0       	ldi	r25, 0x04	; 4
     b32:	9f 87       	std	Y+15, r25	; 0x0f
     b34:	8e 87       	std	Y+14, r24	; 0x0e
     b36:	80 e0       	ldi	r24, 0x00	; 0
     b38:	9e ee       	ldi	r25, 0xEE	; 238
     b3a:	99 8b       	std	Y+17, r25	; 0x11
     b3c:	88 8b       	std	Y+16, r24	; 0x10
     b3e:	9b 8b       	std	Y+19, r25	; 0x13
     b40:	8a 8b       	std	Y+18, r24	; 0x12
     b42:	88 eb       	ldi	r24, 0xB8	; 184
     b44:	91 e0       	ldi	r25, 0x01	; 1
     b46:	99 83       	std	Y+1, r25	; 0x01
     b48:	88 83       	st	Y, r24
{
	this->display = display;
     b4a:	7d 8b       	std	Y+21, r23	; 0x15
     b4c:	6c 8b       	std	Y+20, r22	; 0x14
	this->funMotor =  new LinarCoolerMotor(CoolerMotorPin);
     b4e:	80 e1       	ldi	r24, 0x10	; 16
     b50:	90 e0       	ldi	r25, 0x00	; 0
     b52:	0e 94 dc 1a 	call	0x35b8	; 0x35b8 <_Znwj>
     b56:	8c 01       	movw	r16, r24
     b58:	66 e0       	ldi	r22, 0x06	; 6
     b5a:	70 e0       	ldi	r23, 0x00	; 0
     b5c:	0e 94 da 00 	call	0x1b4	; 0x1b4 <_ZN16LinarCoolerMotorC1Ei>
     b60:	1f 8b       	std	Y+23, r17	; 0x17
     b62:	0e 8b       	std	Y+22, r16	; 0x16
	this->temp = temp;
     b64:	f9 8e       	std	Y+25, r15	; 0x19
     b66:	e8 8e       	std	Y+24, r14	; 0x18
} //FunMode
     b68:	df 91       	pop	r29
     b6a:	cf 91       	pop	r28
     b6c:	1f 91       	pop	r17
     b6e:	0f 91       	pop	r16
     b70:	ff 90       	pop	r15
     b72:	ef 90       	pop	r14
     b74:	08 95       	ret

00000b76 <_ZN7OFFModeD1Ev>:

#include "OFFMode.h"
#include "ModeEnum.h"

// default constructor
OFFMode::OFFMode(){} //OFFMode
     b76:	08 95       	ret

00000b78 <_ZN7OFFMode10ReadEEPROMEv>:
     b78:	08 95       	ret

00000b7a <_ZN7OFFMode15ReadPWMInEepromE10ButtonEnum>:
     b7a:	08 95       	ret

00000b7c <_ZN7OFFMode11GetTypeModeEv>:
     b7c:	81 e0       	ldi	r24, 0x01	; 1
     b7e:	90 e0       	ldi	r25, 0x00	; 0
     b80:	08 95       	ret

00000b82 <_ZN7OFFMode10PrintStateEv>:
     b82:	dc 01       	movw	r26, r24
     b84:	54 96       	adiw	r26, 0x14	; 20
     b86:	8d 91       	ld	r24, X+
     b88:	9c 91       	ld	r25, X
     b8a:	55 97       	sbiw	r26, 0x15	; 21
     b8c:	dc 01       	movw	r26, r24
     b8e:	ed 91       	ld	r30, X+
     b90:	fc 91       	ld	r31, X
     b92:	06 80       	ldd	r0, Z+6	; 0x06
     b94:	f7 81       	ldd	r31, Z+7	; 0x07
     b96:	e0 2d       	mov	r30, r0
     b98:	09 94       	ijmp

00000b9a <_ZN7OFFModeD0Ev>:
     b9a:	0c 94 de 1a 	jmp	0x35bc	; 0x35bc <_ZdlPv>

00000b9e <_ZN7OFFModeC1EP8IDisplay>:
OFFMode::OFFMode(IDisplay* display)
     b9e:	0f 93       	push	r16
     ba0:	1f 93       	push	r17
     ba2:	fc 01       	movw	r30, r24
     ba4:	8f ef       	ldi	r24, 0xFF	; 255
     ba6:	9f ef       	ldi	r25, 0xFF	; 255
     ba8:	93 83       	std	Z+3, r25	; 0x03
     baa:	82 83       	std	Z+2, r24	; 0x02
     bac:	15 82       	std	Z+5, r1	; 0x05
     bae:	14 82       	std	Z+4, r1	; 0x04
     bb0:	97 83       	std	Z+7, r25	; 0x07
     bb2:	86 83       	std	Z+6, r24	; 0x06
     bb4:	00 e0       	ldi	r16, 0x00	; 0
     bb6:	10 e0       	ldi	r17, 0x00	; 0
     bb8:	20 e8       	ldi	r18, 0x80	; 128
     bba:	3f eb       	ldi	r19, 0xBF	; 191
     bbc:	00 87       	std	Z+8, r16	; 0x08
     bbe:	11 87       	std	Z+9, r17	; 0x09
     bc0:	22 87       	std	Z+10, r18	; 0x0a
     bc2:	33 87       	std	Z+11, r19	; 0x0b
     bc4:	95 87       	std	Z+13, r25	; 0x0d
     bc6:	84 87       	std	Z+12, r24	; 0x0c
     bc8:	80 e0       	ldi	r24, 0x00	; 0
     bca:	94 e0       	ldi	r25, 0x04	; 4
     bcc:	97 87       	std	Z+15, r25	; 0x0f
     bce:	86 87       	std	Z+14, r24	; 0x0e
     bd0:	80 e0       	ldi	r24, 0x00	; 0
     bd2:	9e ee       	ldi	r25, 0xEE	; 238
     bd4:	91 8b       	std	Z+17, r25	; 0x11
     bd6:	80 8b       	std	Z+16, r24	; 0x10
     bd8:	93 8b       	std	Z+19, r25	; 0x13
     bda:	82 8b       	std	Z+18, r24	; 0x12
     bdc:	86 ed       	ldi	r24, 0xD6	; 214
     bde:	91 e0       	ldi	r25, 0x01	; 1
     be0:	91 83       	std	Z+1, r25	; 0x01
     be2:	80 83       	st	Z, r24
{
	this->display = display;
     be4:	75 8b       	std	Z+21, r23	; 0x15
     be6:	64 8b       	std	Z+20, r22	; 0x14
} //OFFMode
     be8:	1f 91       	pop	r17
     bea:	0f 91       	pop	r16
     bec:	08 95       	ret

00000bee <_ZN9PowerModeD1Ev>:
* Author: koval
*/
#include "PowerMode.h"

// default constructor
PowerMode::PowerMode()
     bee:	08 95       	ret

00000bf0 <_ZN9PowerMode11GetTypeModeEv>:
     bf0:	86 e0       	ldi	r24, 0x06	; 6
     bf2:	90 e0       	ldi	r25, 0x00	; 0
     bf4:	08 95       	ret

00000bf6 <_ZN9PowerMode10PrintStateEv>:
     bf6:	cf 93       	push	r28
     bf8:	df 93       	push	r29
     bfa:	fc 01       	movw	r30, r24
     bfc:	c4 89       	ldd	r28, Z+20	; 0x14
     bfe:	d5 89       	ldd	r29, Z+21	; 0x15
     c00:	a6 89       	ldd	r26, Z+22	; 0x16
     c02:	b7 89       	ldd	r27, Z+23	; 0x17
     c04:	00 8c       	ldd	r0, Z+24	; 0x18
     c06:	f1 8d       	ldd	r31, Z+25	; 0x19
     c08:	e0 2d       	mov	r30, r0
     c0a:	20 85       	ldd	r18, Z+8	; 0x08
     c0c:	31 85       	ldd	r19, Z+9	; 0x09
     c0e:	42 85       	ldd	r20, Z+10	; 0x0a
     c10:	53 85       	ldd	r21, Z+11	; 0x0b
     c12:	18 96       	adiw	r26, 0x08	; 8
     c14:	6d 91       	ld	r22, X+
     c16:	7d 91       	ld	r23, X+
     c18:	8d 91       	ld	r24, X+
     c1a:	9c 91       	ld	r25, X
     c1c:	1b 97       	sbiw	r26, 0x0b	; 11
     c1e:	0e 94 5f 1a 	call	0x34be	; 0x34be <__mulsf3>
     c22:	ab 01       	movw	r20, r22
     c24:	bc 01       	movw	r22, r24
     c26:	e8 81       	ld	r30, Y
     c28:	f9 81       	ldd	r31, Y+1	; 0x01
     c2a:	02 a0       	ldd	r0, Z+34	; 0x22
     c2c:	f3 a1       	ldd	r31, Z+35	; 0x23
     c2e:	e0 2d       	mov	r30, r0
     c30:	ce 01       	movw	r24, r28
     c32:	df 91       	pop	r29
     c34:	cf 91       	pop	r28
     c36:	09 94       	ijmp

00000c38 <_ZN9PowerMode10ReadEEPROMEv>:
     c38:	08 95       	ret

00000c3a <_ZN9PowerMode15ReadPWMInEepromE10ButtonEnum>:
     c3a:	08 95       	ret

00000c3c <_ZN9PowerModeD0Ev>:
     c3c:	0c 94 de 1a 	jmp	0x35bc	; 0x35bc <_ZdlPv>

00000c40 <_ZN9PowerModeC1EP5IModeS1_P8IDisplay>:
{
} //PowerMode
PowerMode::PowerMode(IMode* voltageMode, IMode* amperagedMode, IDisplay* display)
     c40:	cf 92       	push	r12
     c42:	df 92       	push	r13
     c44:	ef 92       	push	r14
     c46:	ff 92       	push	r15
     c48:	fc 01       	movw	r30, r24
     c4a:	8f ef       	ldi	r24, 0xFF	; 255
     c4c:	9f ef       	ldi	r25, 0xFF	; 255
     c4e:	93 83       	std	Z+3, r25	; 0x03
     c50:	82 83       	std	Z+2, r24	; 0x02
     c52:	15 82       	std	Z+5, r1	; 0x05
     c54:	14 82       	std	Z+4, r1	; 0x04
     c56:	97 83       	std	Z+7, r25	; 0x07
     c58:	86 83       	std	Z+6, r24	; 0x06
     c5a:	c1 2c       	mov	r12, r1
     c5c:	d1 2c       	mov	r13, r1
     c5e:	a0 e8       	ldi	r26, 0x80	; 128
     c60:	ea 2e       	mov	r14, r26
     c62:	af eb       	ldi	r26, 0xBF	; 191
     c64:	fa 2e       	mov	r15, r26
     c66:	c0 86       	std	Z+8, r12	; 0x08
     c68:	d1 86       	std	Z+9, r13	; 0x09
     c6a:	e2 86       	std	Z+10, r14	; 0x0a
     c6c:	f3 86       	std	Z+11, r15	; 0x0b
     c6e:	95 87       	std	Z+13, r25	; 0x0d
     c70:	84 87       	std	Z+12, r24	; 0x0c
     c72:	80 e0       	ldi	r24, 0x00	; 0
     c74:	94 e0       	ldi	r25, 0x04	; 4
     c76:	97 87       	std	Z+15, r25	; 0x0f
     c78:	86 87       	std	Z+14, r24	; 0x0e
     c7a:	80 e0       	ldi	r24, 0x00	; 0
     c7c:	9e ee       	ldi	r25, 0xEE	; 238
     c7e:	91 8b       	std	Z+17, r25	; 0x11
     c80:	80 8b       	std	Z+16, r24	; 0x10
     c82:	93 8b       	std	Z+19, r25	; 0x13
     c84:	82 8b       	std	Z+18, r24	; 0x12
     c86:	84 ef       	ldi	r24, 0xF4	; 244
     c88:	91 e0       	ldi	r25, 0x01	; 1
     c8a:	91 83       	std	Z+1, r25	; 0x01
     c8c:	80 83       	st	Z, r24
{
	this->display = display;
     c8e:	35 8b       	std	Z+21, r19	; 0x15
     c90:	24 8b       	std	Z+20, r18	; 0x14
	this->amperagedMode = amperagedMode;
     c92:	51 8f       	std	Z+25, r21	; 0x19
     c94:	40 8f       	std	Z+24, r20	; 0x18
	this->voltageMode = voltageMode;
     c96:	77 8b       	std	Z+23, r23	; 0x17
     c98:	66 8b       	std	Z+22, r22	; 0x16
}
     c9a:	ff 90       	pop	r15
     c9c:	ef 90       	pop	r14
     c9e:	df 90       	pop	r13
     ca0:	cf 90       	pop	r12
     ca2:	08 95       	ret

00000ca4 <_ZN16SetAmperagedModeD1Ev>:
#include "ModeEnum.h"
#include <EEPROM.h>
#include "Arduino.h"

// default constructor
SetAmperagedMode::SetAmperagedMode() {} //SetAmperagedMode
     ca4:	08 95       	ret

00000ca6 <_ZN16SetAmperagedMode21IncrementEncoderValueEv>:
     ca6:	fc 01       	movw	r30, r24
     ca8:	24 81       	ldd	r18, Z+4	; 0x04
     caa:	35 81       	ldd	r19, Z+5	; 0x05
     cac:	2e 3f       	cpi	r18, 0xFE	; 254
     cae:	31 05       	cpc	r19, r1
     cb0:	24 f4       	brge	.+8      	; 0xcba <_ZN16SetAmperagedMode21IncrementEncoderValueEv+0x14>
     cb2:	2f 5f       	subi	r18, 0xFF	; 255
     cb4:	3f 4f       	sbci	r19, 0xFF	; 255
     cb6:	35 83       	std	Z+5, r19	; 0x05
     cb8:	24 83       	std	Z+4, r18	; 0x04
     cba:	08 95       	ret

00000cbc <_ZN16SetAmperagedMode21DecrementEncoderValueEv>:
     cbc:	fc 01       	movw	r30, r24
     cbe:	24 81       	ldd	r18, Z+4	; 0x04
     cc0:	35 81       	ldd	r19, Z+5	; 0x05
     cc2:	12 16       	cp	r1, r18
     cc4:	13 06       	cpc	r1, r19
     cc6:	24 f4       	brge	.+8      	; 0xcd0 <_ZN16SetAmperagedMode21DecrementEncoderValueEv+0x14>
     cc8:	21 50       	subi	r18, 0x01	; 1
     cca:	31 09       	sbc	r19, r1
     ccc:	35 83       	std	Z+5, r19	; 0x05
     cce:	24 83       	std	Z+4, r18	; 0x04
     cd0:	08 95       	ret

00000cd2 <_ZN16SetAmperagedMode11GetTypeModeEv>:
     cd2:	84 e0       	ldi	r24, 0x04	; 4
     cd4:	90 e0       	ldi	r25, 0x00	; 0
     cd6:	08 95       	ret

00000cd8 <_ZN16SetAmperagedMode10PrintStateEv>:
     cd8:	0f 93       	push	r16
     cda:	1f 93       	push	r17
     cdc:	fc 01       	movw	r30, r24
     cde:	84 89       	ldd	r24, Z+20	; 0x14
     ce0:	95 89       	ldd	r25, Z+21	; 0x15
     ce2:	00 85       	ldd	r16, Z+8	; 0x08
     ce4:	11 85       	ldd	r17, Z+9	; 0x09
     ce6:	22 85       	ldd	r18, Z+10	; 0x0a
     ce8:	33 85       	ldd	r19, Z+11	; 0x0b
     cea:	46 89       	ldd	r20, Z+22	; 0x16
     cec:	57 89       	ldd	r21, Z+23	; 0x17
     cee:	60 8d       	ldd	r22, Z+24	; 0x18
     cf0:	71 8d       	ldd	r23, Z+25	; 0x19
     cf2:	dc 01       	movw	r26, r24
     cf4:	ed 91       	ld	r30, X+
     cf6:	fc 91       	ld	r31, X
     cf8:	00 88       	ldd	r0, Z+16	; 0x10
     cfa:	f1 89       	ldd	r31, Z+17	; 0x11
     cfc:	e0 2d       	mov	r30, r0
     cfe:	09 95       	icall
     d00:	1f 91       	pop	r17
     d02:	0f 91       	pop	r16
     d04:	08 95       	ret

00000d06 <_ZN16SetAmperagedMode9PrintModeEv>:
     d06:	0f 93       	push	r16
     d08:	1f 93       	push	r17
     d0a:	cf 93       	push	r28
     d0c:	df 93       	push	r29
     d0e:	ec 01       	movw	r28, r24
     d10:	ec 89       	ldd	r30, Y+20	; 0x14
     d12:	fd 89       	ldd	r31, Y+21	; 0x15
     d14:	01 90       	ld	r0, Z+
     d16:	f0 81       	ld	r31, Z
     d18:	e0 2d       	mov	r30, r0
     d1a:	02 89       	ldd	r16, Z+18	; 0x12
     d1c:	13 89       	ldd	r17, Z+19	; 0x13
     d1e:	e8 81       	ld	r30, Y
     d20:	f9 81       	ldd	r31, Y+1	; 0x01
     d22:	00 84       	ldd	r0, Z+8	; 0x08
     d24:	f1 85       	ldd	r31, Z+9	; 0x09
     d26:	e0 2d       	mov	r30, r0
     d28:	09 95       	icall
     d2a:	bc 01       	movw	r22, r24
     d2c:	8c 89       	ldd	r24, Y+20	; 0x14
     d2e:	9d 89       	ldd	r25, Y+21	; 0x15
     d30:	f8 01       	movw	r30, r16
     d32:	df 91       	pop	r29
     d34:	cf 91       	pop	r28
     d36:	1f 91       	pop	r17
     d38:	0f 91       	pop	r16
     d3a:	09 94       	ijmp

00000d3c <_ZN16SetAmperagedMode15ReadPWMInEepromE10ButtonEnum>:
     d3c:	08 95       	ret

00000d3e <_ZN16SetAmperagedModeD0Ev>:
     d3e:	0c 94 de 1a 	jmp	0x35bc	; 0x35bc <_ZdlPv>

00000d42 <_ZN16SetAmperagedMode8WritePWMEv>:
     d42:	fc 01       	movw	r30, r24
     d44:	64 81       	ldd	r22, Z+4	; 0x04
     d46:	75 81       	ldd	r23, Z+5	; 0x05
     d48:	86 81       	ldd	r24, Z+6	; 0x06
     d4a:	0c 94 57 1d 	jmp	0x3aae	; 0x3aae <analogWrite>

00000d4e <_ZN16SetAmperagedMode10SaveEEPROMEv>:
     d4e:	1f 93       	push	r17
     d50:	cf 93       	push	r28
     d52:	df 93       	push	r29
     d54:	fc 01       	movw	r30, r24
     d56:	14 81       	ldd	r17, Z+4	; 0x04
     d58:	c6 a1       	ldd	r28, Z+38	; 0x26
     d5a:	d7 a1       	ldd	r29, Z+39	; 0x27
     d5c:	ce 01       	movw	r24, r28
     d5e:	0e 94 79 22 	call	0x44f2	; 0x44f2 <eeprom_read_byte>
     d62:	18 17       	cp	r17, r24
     d64:	21 f0       	breq	.+8      	; 0xd6e <_ZN16SetAmperagedMode10SaveEEPROMEv+0x20>
     d66:	61 2f       	mov	r22, r17
     d68:	ce 01       	movw	r24, r28
     d6a:	0e 94 81 22 	call	0x4502	; 0x4502 <eeprom_write_byte>
     d6e:	60 e0       	ldi	r22, 0x00	; 0
     d70:	71 e0       	ldi	r23, 0x01	; 1
     d72:	80 e0       	ldi	r24, 0x00	; 0
     d74:	90 e0       	ldi	r25, 0x00	; 0
     d76:	df 91       	pop	r29
     d78:	cf 91       	pop	r28
     d7a:	1f 91       	pop	r17
     d7c:	0c 94 b8 1c 	jmp	0x3970	; 0x3970 <delay>

00000d80 <_ZN16SetAmperagedMode10ReadEEPROMEv>:
     d80:	cf 93       	push	r28
     d82:	df 93       	push	r29
     d84:	ec 01       	movw	r28, r24
     d86:	8e a1       	ldd	r24, Y+38	; 0x26
     d88:	9f a1       	ldd	r25, Y+39	; 0x27
     d8a:	0e 94 79 22 	call	0x44f2	; 0x44f2 <eeprom_read_byte>
     d8e:	90 e0       	ldi	r25, 0x00	; 0
     d90:	9d 83       	std	Y+5, r25	; 0x05
     d92:	8c 83       	std	Y+4, r24	; 0x04
     d94:	60 e0       	ldi	r22, 0x00	; 0
     d96:	71 e0       	ldi	r23, 0x01	; 1
     d98:	80 e0       	ldi	r24, 0x00	; 0
     d9a:	90 e0       	ldi	r25, 0x00	; 0
     d9c:	df 91       	pop	r29
     d9e:	cf 91       	pop	r28
     da0:	0c 94 b8 1c 	jmp	0x3970	; 0x3970 <delay>

00000da4 <_ZN5IMode10ReadMedianEii>:
     da4:	5f 92       	push	r5
     da6:	6f 92       	push	r6
     da8:	7f 92       	push	r7
     daa:	8f 92       	push	r8
     dac:	9f 92       	push	r9
     dae:	af 92       	push	r10
     db0:	bf 92       	push	r11
     db2:	cf 92       	push	r12
     db4:	df 92       	push	r13
     db6:	ef 92       	push	r14
     db8:	ff 92       	push	r15
     dba:	0f 93       	push	r16
     dbc:	1f 93       	push	r17
     dbe:	cf 93       	push	r28
     dc0:	df 93       	push	r29
     dc2:	cd b7       	in	r28, 0x3d	; 61
     dc4:	de b7       	in	r29, 0x3e	; 62
     dc6:	56 2e       	mov	r5, r22
     dc8:	8a 01       	movw	r16, r20
     dca:	6d b6       	in	r6, 0x3d	; 61
     dcc:	7e b6       	in	r7, 0x3e	; 62
     dce:	6a 01       	movw	r12, r20
     dd0:	21 e0       	ldi	r18, 0x01	; 1
     dd2:	c2 1a       	sub	r12, r18
     dd4:	d1 08       	sbc	r13, r1
     dd6:	ca 01       	movw	r24, r20
     dd8:	88 0f       	add	r24, r24
     dda:	99 1f       	adc	r25, r25
     ddc:	ed b7       	in	r30, 0x3d	; 61
     dde:	fe b7       	in	r31, 0x3e	; 62
     de0:	e8 1b       	sub	r30, r24
     de2:	f9 0b       	sbc	r31, r25
     de4:	0f b6       	in	r0, 0x3f	; 63
     de6:	f8 94       	cli
     de8:	fe bf       	out	0x3e, r31	; 62
     dea:	0f be       	out	0x3f, r0	; 63
     dec:	ed bf       	out	0x3d, r30	; 61
     dee:	2d b7       	in	r18, 0x3d	; 61
     df0:	3e b7       	in	r19, 0x3e	; 62
     df2:	2f 5f       	subi	r18, 0xFF	; 255
     df4:	3f 4f       	sbci	r19, 0xFF	; 255
     df6:	79 01       	movw	r14, r18
     df8:	49 01       	movw	r8, r18
     dfa:	a1 2c       	mov	r10, r1
     dfc:	b1 2c       	mov	r11, r1
     dfe:	a0 16       	cp	r10, r16
     e00:	b1 06       	cpc	r11, r17
     e02:	1c f0       	brlt	.+6      	; 0xe0a <_ZN5IMode10ReadMedianEii+0x66>
     e04:	80 e0       	ldi	r24, 0x00	; 0
     e06:	90 e0       	ldi	r25, 0x00	; 0
     e08:	1e c0       	rjmp	.+60     	; 0xe46 <_ZN5IMode10ReadMedianEii+0xa2>
     e0a:	85 2d       	mov	r24, r5
     e0c:	0e 94 3a 1d 	call	0x3a74	; 0x3a74 <analogRead>
     e10:	f4 01       	movw	r30, r8
     e12:	81 93       	st	Z+, r24
     e14:	91 93       	st	Z+, r25
     e16:	4f 01       	movw	r8, r30
     e18:	ff ef       	ldi	r31, 0xFF	; 255
     e1a:	af 1a       	sub	r10, r31
     e1c:	bf 0a       	sbc	r11, r31
     e1e:	ef cf       	rjmp	.-34     	; 0xdfe <_ZN5IMode10ReadMedianEii+0x5a>
     e20:	41 91       	ld	r20, Z+
     e22:	51 91       	ld	r21, Z+
     e24:	2f 5f       	subi	r18, 0xFF	; 255
     e26:	3f 4f       	sbci	r19, 0xFF	; 255
     e28:	60 81       	ld	r22, Z
     e2a:	71 81       	ldd	r23, Z+1	; 0x01
     e2c:	64 17       	cp	r22, r20
     e2e:	75 07       	cpc	r23, r21
     e30:	34 f4       	brge	.+12     	; 0xe3e <_ZN5IMode10ReadMedianEii+0x9a>
     e32:	df 01       	movw	r26, r30
     e34:	12 97       	sbiw	r26, 0x02	; 2
     e36:	6d 93       	st	X+, r22
     e38:	7c 93       	st	X, r23
     e3a:	51 83       	std	Z+1, r21	; 0x01
     e3c:	40 83       	st	Z, r20
     e3e:	2c 15       	cp	r18, r12
     e40:	3d 05       	cpc	r19, r13
     e42:	74 f3       	brlt	.-36     	; 0xe20 <_ZN5IMode10ReadMedianEii+0x7c>
     e44:	01 96       	adiw	r24, 0x01	; 1
     e46:	80 17       	cp	r24, r16
     e48:	91 07       	cpc	r25, r17
     e4a:	24 f4       	brge	.+8      	; 0xe54 <_ZN5IMode10ReadMedianEii+0xb0>
     e4c:	f7 01       	movw	r30, r14
     e4e:	20 e0       	ldi	r18, 0x00	; 0
     e50:	30 e0       	ldi	r19, 0x00	; 0
     e52:	f5 cf       	rjmp	.-22     	; 0xe3e <_ZN5IMode10ReadMedianEii+0x9a>
     e54:	17 ff       	sbrs	r17, 7
     e56:	02 c0       	rjmp	.+4      	; 0xe5c <_ZN5IMode10ReadMedianEii+0xb8>
     e58:	0f 5f       	subi	r16, 0xFF	; 255
     e5a:	1f 4f       	sbci	r17, 0xFF	; 255
     e5c:	0e 7f       	andi	r16, 0xFE	; 254
     e5e:	f7 01       	movw	r30, r14
     e60:	e0 0f       	add	r30, r16
     e62:	f1 1f       	adc	r31, r17
     e64:	80 81       	ld	r24, Z
     e66:	91 81       	ldd	r25, Z+1	; 0x01
     e68:	0f b6       	in	r0, 0x3f	; 63
     e6a:	f8 94       	cli
     e6c:	7e be       	out	0x3e, r7	; 62
     e6e:	0f be       	out	0x3f, r0	; 63
     e70:	6d be       	out	0x3d, r6	; 61
     e72:	df 91       	pop	r29
     e74:	cf 91       	pop	r28
     e76:	1f 91       	pop	r17
     e78:	0f 91       	pop	r16
     e7a:	ff 90       	pop	r15
     e7c:	ef 90       	pop	r14
     e7e:	df 90       	pop	r13
     e80:	cf 90       	pop	r12
     e82:	bf 90       	pop	r11
     e84:	af 90       	pop	r10
     e86:	9f 90       	pop	r9
     e88:	8f 90       	pop	r8
     e8a:	7f 90       	pop	r7
     e8c:	6f 90       	pop	r6
     e8e:	5f 90       	pop	r5
     e90:	08 95       	ret

00000e92 <_ZN16SetAmperagedMode7ReadADCEv>:
     e92:	1f 93       	push	r17
     e94:	cf 93       	push	r28
     e96:	df 93       	push	r29
     e98:	ec 01       	movw	r28, r24
     e9a:	6c 85       	ldd	r22, Y+12	; 0x0c
     e9c:	7d 85       	ldd	r23, Y+13	; 0x0d
     e9e:	45 e0       	ldi	r20, 0x05	; 5
     ea0:	50 e0       	ldi	r21, 0x00	; 0
     ea2:	0e 94 d2 06 	call	0xda4	; 0xda4 <_ZN5IMode10ReadMedianEii>
     ea6:	bc 01       	movw	r22, r24
     ea8:	99 0f       	add	r25, r25
     eaa:	88 0b       	sbc	r24, r24
     eac:	99 0b       	sbc	r25, r25
     eae:	0e 94 aa 19 	call	0x3354	; 0x3354 <__floatsisf>
     eb2:	9b 01       	movw	r18, r22
     eb4:	ac 01       	movw	r20, r24
     eb6:	6a a1       	ldd	r22, Y+34	; 0x22
     eb8:	7b a1       	ldd	r23, Y+35	; 0x23
     eba:	8c a1       	ldd	r24, Y+36	; 0x24
     ebc:	9d a1       	ldd	r25, Y+37	; 0x25
     ebe:	0e 94 5f 1a 	call	0x34be	; 0x34be <__mulsf3>
     ec2:	68 87       	std	Y+8, r22	; 0x08
     ec4:	79 87       	std	Y+9, r23	; 0x09
     ec6:	8a 87       	std	Y+10, r24	; 0x0a
     ec8:	9b 87       	std	Y+11, r25	; 0x0b
     eca:	6a 8d       	ldd	r22, Y+26	; 0x1a
     ecc:	7b 8d       	ldd	r23, Y+27	; 0x1b
     ece:	8c 8d       	ldd	r24, Y+28	; 0x1c
     ed0:	9d 8d       	ldd	r25, Y+29	; 0x1d
     ed2:	0e 94 72 19 	call	0x32e4	; 0x32e4 <__fixsfsi>
     ed6:	45 e0       	ldi	r20, 0x05	; 5
     ed8:	50 e0       	ldi	r21, 0x00	; 0
     eda:	ce 01       	movw	r24, r28
     edc:	0e 94 d2 06 	call	0xda4	; 0xda4 <_ZN5IMode10ReadMedianEii>
     ee0:	bc 01       	movw	r22, r24
     ee2:	99 0f       	add	r25, r25
     ee4:	88 0b       	sbc	r24, r24
     ee6:	99 0b       	sbc	r25, r25
     ee8:	0e 94 aa 19 	call	0x3354	; 0x3354 <__floatsisf>
     eec:	2a a1       	ldd	r18, Y+34	; 0x22
     eee:	3b a1       	ldd	r19, Y+35	; 0x23
     ef0:	4c a1       	ldd	r20, Y+36	; 0x24
     ef2:	5d a1       	ldd	r21, Y+37	; 0x25
     ef4:	0e 94 5f 1a 	call	0x34be	; 0x34be <__mulsf3>
     ef8:	6e 8b       	std	Y+22, r22	; 0x16
     efa:	7f 8b       	std	Y+23, r23	; 0x17
     efc:	88 8f       	std	Y+24, r24	; 0x18
     efe:	99 8f       	std	Y+25, r25	; 0x19
     f00:	11 e0       	ldi	r17, 0x01	; 1
     f02:	28 85       	ldd	r18, Y+8	; 0x08
     f04:	39 85       	ldd	r19, Y+9	; 0x09
     f06:	4a 85       	ldd	r20, Y+10	; 0x0a
     f08:	5b 85       	ldd	r21, Y+11	; 0x0b
     f0a:	0e 94 fb 18 	call	0x31f6	; 0x31f6 <__cmpsf2>
     f0e:	18 16       	cp	r1, r24
     f10:	0c f4       	brge	.+2      	; 0xf14 <_ZN16SetAmperagedMode7ReadADCEv+0x82>
     f12:	10 e0       	ldi	r17, 0x00	; 0
     f14:	61 2f       	mov	r22, r17
     f16:	88 a5       	ldd	r24, Y+40	; 0x28
     f18:	df 91       	pop	r29
     f1a:	cf 91       	pop	r28
     f1c:	1f 91       	pop	r17
     f1e:	0c 94 1b 1e 	jmp	0x3c36	; 0x3c36 <digitalWrite>

00000f22 <_ZN16SetAmperagedModeC1EiiiiP8IDisplay>:

SetAmperagedMode::SetAmperagedMode(int pwmWritePin, int readValuePin,  int backupReadPin, int stabAmperageLedPin, IDisplay* display)
     f22:	9f 92       	push	r9
     f24:	af 92       	push	r10
     f26:	bf 92       	push	r11
     f28:	cf 92       	push	r12
     f2a:	df 92       	push	r13
     f2c:	ef 92       	push	r14
     f2e:	ff 92       	push	r15
     f30:	0f 93       	push	r16
     f32:	1f 93       	push	r17
     f34:	cf 93       	push	r28
     f36:	df 93       	push	r29
     f38:	ec 01       	movw	r28, r24
     f3a:	d6 2e       	mov	r13, r22
     f3c:	c4 2e       	mov	r12, r20
     f3e:	95 2e       	mov	r9, r21
     f40:	59 01       	movw	r10, r18
     f42:	8f ef       	ldi	r24, 0xFF	; 255
     f44:	9f ef       	ldi	r25, 0xFF	; 255
     f46:	9b 83       	std	Y+3, r25	; 0x03
     f48:	8a 83       	std	Y+2, r24	; 0x02
     f4a:	1d 82       	std	Y+5, r1	; 0x05
     f4c:	1c 82       	std	Y+4, r1	; 0x04
     f4e:	80 e0       	ldi	r24, 0x00	; 0
     f50:	90 e0       	ldi	r25, 0x00	; 0
     f52:	a0 e8       	ldi	r26, 0x80	; 128
     f54:	bf eb       	ldi	r27, 0xBF	; 191
     f56:	88 87       	std	Y+8, r24	; 0x08
     f58:	99 87       	std	Y+9, r25	; 0x09
     f5a:	aa 87       	std	Y+10, r26	; 0x0a
     f5c:	bb 87       	std	Y+11, r27	; 0x0b
     f5e:	20 e0       	ldi	r18, 0x00	; 0
     f60:	34 e0       	ldi	r19, 0x04	; 4
     f62:	3f 87       	std	Y+15, r19	; 0x0f
     f64:	2e 87       	std	Y+14, r18	; 0x0e
     f66:	20 e0       	ldi	r18, 0x00	; 0
     f68:	3e ee       	ldi	r19, 0xEE	; 238
     f6a:	39 8b       	std	Y+17, r19	; 0x11
     f6c:	28 8b       	std	Y+16, r18	; 0x10
     f6e:	3b 8b       	std	Y+19, r19	; 0x13
     f70:	2a 8b       	std	Y+18, r18	; 0x12
     f72:	22 e1       	ldi	r18, 0x12	; 18
     f74:	32 e0       	ldi	r19, 0x02	; 2
     f76:	39 83       	std	Y+1, r19	; 0x01
     f78:	28 83       	st	Y, r18
     f7a:	8e 8b       	std	Y+22, r24	; 0x16
     f7c:	9f 8b       	std	Y+23, r25	; 0x17
     f7e:	a8 8f       	std	Y+24, r26	; 0x18
     f80:	b9 8f       	std	Y+25, r27	; 0x19
     f82:	80 e0       	ldi	r24, 0x00	; 0
     f84:	90 e0       	ldi	r25, 0x00	; 0
     f86:	a0 e3       	ldi	r26, 0x30	; 48
     f88:	b1 e4       	ldi	r27, 0x41	; 65
     f8a:	8e 8f       	std	Y+30, r24	; 0x1e
     f8c:	9f 8f       	std	Y+31, r25	; 0x1f
     f8e:	a8 a3       	std	Y+32, r26	; 0x20
     f90:	b9 a3       	std	Y+33, r27	; 0x21
     f92:	80 e0       	ldi	r24, 0x00	; 0
     f94:	90 e0       	ldi	r25, 0x00	; 0
     f96:	a0 e3       	ldi	r26, 0x30	; 48
     f98:	bc e3       	ldi	r27, 0x3C	; 60
     f9a:	8a a3       	std	Y+34, r24	; 0x22
     f9c:	9b a3       	std	Y+35, r25	; 0x23
     f9e:	ac a3       	std	Y+36, r26	; 0x24
     fa0:	bd a3       	std	Y+37, r27	; 0x25
     fa2:	1f a2       	std	Y+39, r1	; 0x27
     fa4:	1e a2       	std	Y+38, r1	; 0x26
{
	this->pwmWritePin = pwmWritePin;
     fa6:	6e 83       	std	Y+6, r22	; 0x06
     fa8:	7f 83       	std	Y+7, r23	; 0x07
	this->backupReadPin = backupReadPin;
     faa:	b5 01       	movw	r22, r10
     fac:	bb 0c       	add	r11, r11
     fae:	88 0b       	sbc	r24, r24
     fb0:	99 0b       	sbc	r25, r25
     fb2:	0e 94 aa 19 	call	0x3354	; 0x3354 <__floatsisf>
     fb6:	6a 8f       	std	Y+26, r22	; 0x1a
     fb8:	7b 8f       	std	Y+27, r23	; 0x1b
     fba:	8c 8f       	std	Y+28, r24	; 0x1c
     fbc:	9d 8f       	std	Y+29, r25	; 0x1d
	this ->readValuePin = readValuePin;
     fbe:	cc 86       	std	Y+12, r12	; 0x0c
     fc0:	9d 86       	std	Y+13, r9	; 0x0d
	this->stabAmperageLedPin = stabAmperageLedPin;
     fc2:	08 a7       	std	Y+40, r16	; 0x28
     fc4:	19 a7       	std	Y+41, r17	; 0x29
	//pwmValue = 100;
	pinMode(readValuePin, INPUT);
     fc6:	60 e0       	ldi	r22, 0x00	; 0
     fc8:	8c 2d       	mov	r24, r12
     fca:	0e 94 df 1d 	call	0x3bbe	; 0x3bbe <pinMode>
	pinMode(backupReadPin, INPUT);
     fce:	60 e0       	ldi	r22, 0x00	; 0
     fd0:	8a 2d       	mov	r24, r10
     fd2:	0e 94 df 1d 	call	0x3bbe	; 0x3bbe <pinMode>
	pinMode(pwmWritePin, OUTPUT);
     fd6:	61 e0       	ldi	r22, 0x01	; 1
     fd8:	8d 2d       	mov	r24, r13
     fda:	0e 94 df 1d 	call	0x3bbe	; 0x3bbe <pinMode>
	pinMode(stabAmperageLedPin, OUTPUT);
     fde:	61 e0       	ldi	r22, 0x01	; 1
     fe0:	80 2f       	mov	r24, r16
     fe2:	0e 94 df 1d 	call	0x3bbe	; 0x3bbe <pinMode>
	this->display = display;
     fe6:	fd 8a       	std	Y+21, r15	; 0x15
     fe8:	ec 8a       	std	Y+20, r14	; 0x14
} //SetAmperagedMode
     fea:	df 91       	pop	r29
     fec:	cf 91       	pop	r28
     fee:	1f 91       	pop	r17
     ff0:	0f 91       	pop	r16
     ff2:	ff 90       	pop	r15
     ff4:	ef 90       	pop	r14
     ff6:	df 90       	pop	r13
     ff8:	cf 90       	pop	r12
     ffa:	bf 90       	pop	r11
     ffc:	af 90       	pop	r10
     ffe:	9f 90       	pop	r9
    1000:	08 95       	ret

00001002 <_ZN14SetVoltageModeD1Ev>:
#include "ModeEnum.h"
#include "Arduino.h"
#include "EEPROM.h"

// default constructor
SetVoltageMode::SetVoltageMode()
    1002:	08 95       	ret

00001004 <_ZN14SetVoltageMode21IncrementEncoderValueEv>:
    1004:	fc 01       	movw	r30, r24
    1006:	24 81       	ldd	r18, Z+4	; 0x04
    1008:	35 81       	ldd	r19, Z+5	; 0x05
    100a:	2e 3f       	cpi	r18, 0xFE	; 254
    100c:	31 05       	cpc	r19, r1
    100e:	24 f4       	brge	.+8      	; 0x1018 <_ZN14SetVoltageMode21IncrementEncoderValueEv+0x14>
    1010:	2f 5f       	subi	r18, 0xFF	; 255
    1012:	3f 4f       	sbci	r19, 0xFF	; 255
    1014:	35 83       	std	Z+5, r19	; 0x05
    1016:	24 83       	std	Z+4, r18	; 0x04
    1018:	08 95       	ret

0000101a <_ZN14SetVoltageMode21DecrementEncoderValueEv>:
    101a:	fc 01       	movw	r30, r24
    101c:	24 81       	ldd	r18, Z+4	; 0x04
    101e:	35 81       	ldd	r19, Z+5	; 0x05
    1020:	12 16       	cp	r1, r18
    1022:	13 06       	cpc	r1, r19
    1024:	24 f4       	brge	.+8      	; 0x102e <_ZN14SetVoltageMode21DecrementEncoderValueEv+0x14>
    1026:	21 50       	subi	r18, 0x01	; 1
    1028:	31 09       	sbc	r19, r1
    102a:	35 83       	std	Z+5, r19	; 0x05
    102c:	24 83       	std	Z+4, r18	; 0x04
    102e:	08 95       	ret

00001030 <_ZN14SetVoltageMode11GetTypeModeEv>:
    1030:	83 e0       	ldi	r24, 0x03	; 3
    1032:	90 e0       	ldi	r25, 0x00	; 0
    1034:	08 95       	ret

00001036 <_ZN14SetVoltageMode10PrintStateEv>:
    1036:	cf 92       	push	r12
    1038:	df 92       	push	r13
    103a:	ef 92       	push	r14
    103c:	ff 92       	push	r15
    103e:	0f 93       	push	r16
    1040:	1f 93       	push	r17
    1042:	cf 93       	push	r28
    1044:	df 93       	push	r29
    1046:	fc 01       	movw	r30, r24
    1048:	c4 89       	ldd	r28, Z+20	; 0x14
    104a:	d5 89       	ldd	r29, Z+21	; 0x15
    104c:	c0 84       	ldd	r12, Z+8	; 0x08
    104e:	d1 84       	ldd	r13, Z+9	; 0x09
    1050:	e2 84       	ldd	r14, Z+10	; 0x0a
    1052:	f3 84       	ldd	r15, Z+11	; 0x0b
    1054:	64 81       	ldd	r22, Z+4	; 0x04
    1056:	75 81       	ldd	r23, Z+5	; 0x05
    1058:	07 2e       	mov	r0, r23
    105a:	00 0c       	add	r0, r0
    105c:	88 0b       	sbc	r24, r24
    105e:	99 0b       	sbc	r25, r25
    1060:	0e 94 aa 19 	call	0x3354	; 0x3354 <__floatsisf>
    1064:	ab 01       	movw	r20, r22
    1066:	bc 01       	movw	r22, r24
    1068:	e8 81       	ld	r30, Y
    106a:	f9 81       	ldd	r31, Y+1	; 0x01
    106c:	06 84       	ldd	r0, Z+14	; 0x0e
    106e:	f7 85       	ldd	r31, Z+15	; 0x0f
    1070:	e0 2d       	mov	r30, r0
    1072:	97 01       	movw	r18, r14
    1074:	86 01       	movw	r16, r12
    1076:	ce 01       	movw	r24, r28
    1078:	09 95       	icall
    107a:	df 91       	pop	r29
    107c:	cf 91       	pop	r28
    107e:	1f 91       	pop	r17
    1080:	0f 91       	pop	r16
    1082:	ff 90       	pop	r15
    1084:	ef 90       	pop	r14
    1086:	df 90       	pop	r13
    1088:	cf 90       	pop	r12
    108a:	08 95       	ret

0000108c <_ZN14SetVoltageMode9PrintModeEv>:
    108c:	dc 01       	movw	r26, r24
    108e:	54 96       	adiw	r26, 0x14	; 20
    1090:	8d 91       	ld	r24, X+
    1092:	9c 91       	ld	r25, X
    1094:	55 97       	sbiw	r26, 0x15	; 21
    1096:	dc 01       	movw	r26, r24
    1098:	ed 91       	ld	r30, X+
    109a:	fc 91       	ld	r31, X
    109c:	02 88       	ldd	r0, Z+18	; 0x12
    109e:	f3 89       	ldd	r31, Z+19	; 0x13
    10a0:	e0 2d       	mov	r30, r0
    10a2:	63 e0       	ldi	r22, 0x03	; 3
    10a4:	70 e0       	ldi	r23, 0x00	; 0
    10a6:	09 94       	ijmp

000010a8 <_ZN14SetVoltageModeD0Ev>:
    10a8:	0c 94 de 1a 	jmp	0x35bc	; 0x35bc <_ZdlPv>

000010ac <_ZN14SetVoltageMode7ReadADCEv>:
    10ac:	bf 92       	push	r11
    10ae:	cf 92       	push	r12
    10b0:	df 92       	push	r13
    10b2:	ef 92       	push	r14
    10b4:	ff 92       	push	r15
    10b6:	0f 93       	push	r16
    10b8:	1f 93       	push	r17
    10ba:	cf 93       	push	r28
    10bc:	df 93       	push	r29
    10be:	cd b7       	in	r28, 0x3d	; 61
    10c0:	de b7       	in	r29, 0x3e	; 62
    10c2:	2a 97       	sbiw	r28, 0x0a	; 10
    10c4:	0f b6       	in	r0, 0x3f	; 63
    10c6:	f8 94       	cli
    10c8:	de bf       	out	0x3e, r29	; 62
    10ca:	0f be       	out	0x3f, r0	; 63
    10cc:	cd bf       	out	0x3d, r28	; 61
    10ce:	8c 01       	movw	r16, r24
    10d0:	fc 01       	movw	r30, r24
    10d2:	b4 84       	ldd	r11, Z+12	; 0x0c
    10d4:	6e 01       	movw	r12, r28
    10d6:	fb e0       	ldi	r31, 0x0B	; 11
    10d8:	cf 0e       	add	r12, r31
    10da:	d1 1c       	adc	r13, r1
    10dc:	ce 01       	movw	r24, r28
    10de:	01 96       	adiw	r24, 0x01	; 1
    10e0:	7c 01       	movw	r14, r24
    10e2:	8b 2d       	mov	r24, r11
    10e4:	0e 94 3a 1d 	call	0x3a74	; 0x3a74 <analogRead>
    10e8:	f7 01       	movw	r30, r14
    10ea:	81 93       	st	Z+, r24
    10ec:	91 93       	st	Z+, r25
    10ee:	7f 01       	movw	r14, r30
    10f0:	ce 16       	cp	r12, r30
    10f2:	df 06       	cpc	r13, r31
    10f4:	b1 f7       	brne	.-20     	; 0x10e2 <_ZN14SetVoltageMode7ReadADCEv+0x36>
    10f6:	85 e0       	ldi	r24, 0x05	; 5
    10f8:	90 e0       	ldi	r25, 0x00	; 0
    10fa:	be 01       	movw	r22, r28
    10fc:	67 5f       	subi	r22, 0xF7	; 247
    10fe:	7f 4f       	sbci	r23, 0xFF	; 255
    1100:	fe 01       	movw	r30, r28
    1102:	31 96       	adiw	r30, 0x01	; 1
    1104:	21 91       	ld	r18, Z+
    1106:	31 91       	ld	r19, Z+
    1108:	40 81       	ld	r20, Z
    110a:	51 81       	ldd	r21, Z+1	; 0x01
    110c:	42 17       	cp	r20, r18
    110e:	53 07       	cpc	r21, r19
    1110:	24 f0       	brlt	.+8      	; 0x111a <_ZN14SetVoltageMode7ReadADCEv+0x6e>
    1112:	6e 17       	cp	r22, r30
    1114:	7f 07       	cpc	r23, r31
    1116:	b1 f7       	brne	.-20     	; 0x1104 <_ZN14SetVoltageMode7ReadADCEv+0x58>
    1118:	07 c0       	rjmp	.+14     	; 0x1128 <_ZN14SetVoltageMode7ReadADCEv+0x7c>
    111a:	df 01       	movw	r26, r30
    111c:	12 97       	sbiw	r26, 0x02	; 2
    111e:	4d 93       	st	X+, r20
    1120:	5c 93       	st	X, r21
    1122:	31 83       	std	Z+1, r19	; 0x01
    1124:	20 83       	st	Z, r18
    1126:	f5 cf       	rjmp	.-22     	; 0x1112 <_ZN14SetVoltageMode7ReadADCEv+0x66>
    1128:	01 97       	sbiw	r24, 0x01	; 1
    112a:	51 f7       	brne	.-44     	; 0x1100 <_ZN14SetVoltageMode7ReadADCEv+0x54>
    112c:	6d 81       	ldd	r22, Y+5	; 0x05
    112e:	7e 81       	ldd	r23, Y+6	; 0x06
    1130:	07 2e       	mov	r0, r23
    1132:	00 0c       	add	r0, r0
    1134:	88 0b       	sbc	r24, r24
    1136:	99 0b       	sbc	r25, r25
    1138:	0e 94 aa 19 	call	0x3354	; 0x3354 <__floatsisf>
    113c:	9b 01       	movw	r18, r22
    113e:	ac 01       	movw	r20, r24
    1140:	f8 01       	movw	r30, r16
    1142:	62 8d       	ldd	r22, Z+26	; 0x1a
    1144:	73 8d       	ldd	r23, Z+27	; 0x1b
    1146:	84 8d       	ldd	r24, Z+28	; 0x1c
    1148:	95 8d       	ldd	r25, Z+29	; 0x1d
    114a:	0e 94 5f 1a 	call	0x34be	; 0x34be <__mulsf3>
    114e:	f8 01       	movw	r30, r16
    1150:	60 87       	std	Z+8, r22	; 0x08
    1152:	71 87       	std	Z+9, r23	; 0x09
    1154:	82 87       	std	Z+10, r24	; 0x0a
    1156:	93 87       	std	Z+11, r25	; 0x0b
    1158:	2a 96       	adiw	r28, 0x0a	; 10
    115a:	0f b6       	in	r0, 0x3f	; 63
    115c:	f8 94       	cli
    115e:	de bf       	out	0x3e, r29	; 62
    1160:	0f be       	out	0x3f, r0	; 63
    1162:	cd bf       	out	0x3d, r28	; 61
    1164:	df 91       	pop	r29
    1166:	cf 91       	pop	r28
    1168:	1f 91       	pop	r17
    116a:	0f 91       	pop	r16
    116c:	ff 90       	pop	r15
    116e:	ef 90       	pop	r14
    1170:	df 90       	pop	r13
    1172:	cf 90       	pop	r12
    1174:	bf 90       	pop	r11
    1176:	08 95       	ret

00001178 <_ZN14SetVoltageMode8WritePWMEv>:
    1178:	fc 01       	movw	r30, r24
    117a:	64 81       	ldd	r22, Z+4	; 0x04
    117c:	75 81       	ldd	r23, Z+5	; 0x05
    117e:	86 81       	ldd	r24, Z+6	; 0x06
    1180:	0c 94 57 1d 	jmp	0x3aae	; 0x3aae <analogWrite>

00001184 <_ZN14SetVoltageMode15ReadPWMInEepromE10ButtonEnum>:
    1184:	0f 93       	push	r16
    1186:	1f 93       	push	r17
    1188:	cf 93       	push	r28
    118a:	df 93       	push	r29
    118c:	fc 01       	movw	r30, r24
    118e:	61 15       	cp	r22, r1
    1190:	71 05       	cpc	r23, r1
    1192:	29 f4       	brne	.+10     	; 0x119e <_ZN14SetVoltageMode15ReadPWMInEepromE10ButtonEnum+0x1a>
    1194:	80 a1       	ldd	r24, Z+32	; 0x20
    1196:	91 a1       	ldd	r25, Z+33	; 0x21
    1198:	01 e0       	ldi	r16, 0x01	; 1
    119a:	10 e0       	ldi	r17, 0x00	; 0
    119c:	0f c0       	rjmp	.+30     	; 0x11bc <_ZN14SetVoltageMode15ReadPWMInEepromE10ButtonEnum+0x38>
    119e:	61 30       	cpi	r22, 0x01	; 1
    11a0:	71 05       	cpc	r23, r1
    11a2:	29 f4       	brne	.+10     	; 0x11ae <_ZN14SetVoltageMode15ReadPWMInEepromE10ButtonEnum+0x2a>
    11a4:	82 a1       	ldd	r24, Z+34	; 0x22
    11a6:	93 a1       	ldd	r25, Z+35	; 0x23
    11a8:	02 e0       	ldi	r16, 0x02	; 2
    11aa:	10 e0       	ldi	r17, 0x00	; 0
    11ac:	07 c0       	rjmp	.+14     	; 0x11bc <_ZN14SetVoltageMode15ReadPWMInEepromE10ButtonEnum+0x38>
    11ae:	62 30       	cpi	r22, 0x02	; 2
    11b0:	71 05       	cpc	r23, r1
    11b2:	29 f5       	brne	.+74     	; 0x11fe <_ZN14SetVoltageMode15ReadPWMInEepromE10ButtonEnum+0x7a>
    11b4:	84 a1       	ldd	r24, Z+36	; 0x24
    11b6:	95 a1       	ldd	r25, Z+37	; 0x25
    11b8:	03 e0       	ldi	r16, 0x03	; 3
    11ba:	10 e0       	ldi	r17, 0x00	; 0
    11bc:	8f 3f       	cpi	r24, 0xFF	; 255
    11be:	2f ef       	ldi	r18, 0xFF	; 255
    11c0:	92 07       	cpc	r25, r18
    11c2:	e9 f0       	breq	.+58     	; 0x11fe <_ZN14SetVoltageMode15ReadPWMInEepromE10ButtonEnum+0x7a>
    11c4:	ef 01       	movw	r28, r30
    11c6:	0e 94 79 22 	call	0x44f2	; 0x44f2 <eeprom_read_byte>
    11ca:	90 e0       	ldi	r25, 0x00	; 0
    11cc:	2c 81       	ldd	r18, Y+4	; 0x04
    11ce:	3d 81       	ldd	r19, Y+5	; 0x05
    11d0:	82 17       	cp	r24, r18
    11d2:	93 07       	cpc	r25, r19
    11d4:	a1 f0       	breq	.+40     	; 0x11fe <_ZN14SetVoltageMode15ReadPWMInEepromE10ButtonEnum+0x7a>
    11d6:	8c 89       	ldd	r24, Y+20	; 0x14
    11d8:	9d 89       	ldd	r25, Y+21	; 0x15
    11da:	dc 01       	movw	r26, r24
    11dc:	ed 91       	ld	r30, X+
    11de:	fc 91       	ld	r31, X
    11e0:	02 84       	ldd	r0, Z+10	; 0x0a
    11e2:	f3 85       	ldd	r31, Z+11	; 0x0b
    11e4:	e0 2d       	mov	r30, r0
    11e6:	b8 01       	movw	r22, r16
    11e8:	09 95       	icall
    11ea:	68 89       	ldd	r22, Y+16	; 0x10
    11ec:	79 89       	ldd	r23, Y+17	; 0x11
    11ee:	80 e0       	ldi	r24, 0x00	; 0
    11f0:	90 e0       	ldi	r25, 0x00	; 0
    11f2:	df 91       	pop	r29
    11f4:	cf 91       	pop	r28
    11f6:	1f 91       	pop	r17
    11f8:	0f 91       	pop	r16
    11fa:	0c 94 b8 1c 	jmp	0x3970	; 0x3970 <delay>
    11fe:	df 91       	pop	r29
    1200:	cf 91       	pop	r28
    1202:	1f 91       	pop	r17
    1204:	0f 91       	pop	r16
    1206:	08 95       	ret

00001208 <_ZN14SetVoltageMode10ReadEEPROMEv>:
    1208:	cf 93       	push	r28
    120a:	df 93       	push	r29
    120c:	ec 01       	movw	r28, r24
    120e:	8e 8d       	ldd	r24, Y+30	; 0x1e
    1210:	9f 8d       	ldd	r25, Y+31	; 0x1f
    1212:	0e 94 79 22 	call	0x44f2	; 0x44f2 <eeprom_read_byte>
    1216:	90 e0       	ldi	r25, 0x00	; 0
    1218:	9d 83       	std	Y+5, r25	; 0x05
    121a:	8c 83       	std	Y+4, r24	; 0x04
    121c:	df 91       	pop	r29
    121e:	cf 91       	pop	r28
    1220:	08 95       	ret

00001222 <_ZN5EERef6updateEh>:
    1222:	ff 92       	push	r15
    1224:	0f 93       	push	r16
    1226:	1f 93       	push	r17
    1228:	cf 93       	push	r28
    122a:	df 93       	push	r29
    122c:	ec 01       	movw	r28, r24
    122e:	f6 2e       	mov	r15, r22
    1230:	08 81       	ld	r16, Y
    1232:	19 81       	ldd	r17, Y+1	; 0x01
    1234:	c8 01       	movw	r24, r16
    1236:	0e 94 79 22 	call	0x44f2	; 0x44f2 <eeprom_read_byte>
    123a:	f8 16       	cp	r15, r24
    123c:	21 f0       	breq	.+8      	; 0x1246 <_ZN5EERef6updateEh+0x24>
    123e:	6f 2d       	mov	r22, r15
    1240:	c8 01       	movw	r24, r16
    1242:	0e 94 81 22 	call	0x4502	; 0x4502 <eeprom_write_byte>
    1246:	ce 01       	movw	r24, r28
    1248:	df 91       	pop	r29
    124a:	cf 91       	pop	r28
    124c:	1f 91       	pop	r17
    124e:	0f 91       	pop	r16
    1250:	ff 90       	pop	r15
    1252:	08 95       	ret

00001254 <_ZN14SetVoltageMode15SavePWMInEepromE10ButtonEnum>:
    1254:	ef 92       	push	r14
    1256:	ff 92       	push	r15
    1258:	0f 93       	push	r16
    125a:	1f 93       	push	r17
    125c:	cf 93       	push	r28
    125e:	df 93       	push	r29
    1260:	00 d0       	rcall	.+0      	; 0x1262 <_ZN14SetVoltageMode15SavePWMInEepromE10ButtonEnum+0xe>
    1262:	cd b7       	in	r28, 0x3d	; 61
    1264:	de b7       	in	r29, 0x3e	; 62
    1266:	fc 01       	movw	r30, r24
    1268:	61 15       	cp	r22, r1
    126a:	71 05       	cpc	r23, r1
    126c:	31 f4       	brne	.+12     	; 0x127a <_ZN14SetVoltageMode15SavePWMInEepromE10ButtonEnum+0x26>
    126e:	80 a1       	ldd	r24, Z+32	; 0x20
    1270:	91 a1       	ldd	r25, Z+33	; 0x21
    1272:	ee 24       	eor	r14, r14
    1274:	e3 94       	inc	r14
    1276:	f1 2c       	mov	r15, r1
    1278:	11 c0       	rjmp	.+34     	; 0x129c <_ZN14SetVoltageMode15SavePWMInEepromE10ButtonEnum+0x48>
    127a:	61 30       	cpi	r22, 0x01	; 1
    127c:	71 05       	cpc	r23, r1
    127e:	31 f4       	brne	.+12     	; 0x128c <_ZN14SetVoltageMode15SavePWMInEepromE10ButtonEnum+0x38>
    1280:	82 a1       	ldd	r24, Z+34	; 0x22
    1282:	93 a1       	ldd	r25, Z+35	; 0x23
    1284:	32 e0       	ldi	r19, 0x02	; 2
    1286:	e3 2e       	mov	r14, r19
    1288:	f1 2c       	mov	r15, r1
    128a:	08 c0       	rjmp	.+16     	; 0x129c <_ZN14SetVoltageMode15SavePWMInEepromE10ButtonEnum+0x48>
    128c:	62 30       	cpi	r22, 0x02	; 2
    128e:	71 05       	cpc	r23, r1
    1290:	29 f5       	brne	.+74     	; 0x12dc <_ZN14SetVoltageMode15SavePWMInEepromE10ButtonEnum+0x88>
    1292:	84 a1       	ldd	r24, Z+36	; 0x24
    1294:	95 a1       	ldd	r25, Z+37	; 0x25
    1296:	23 e0       	ldi	r18, 0x03	; 3
    1298:	e2 2e       	mov	r14, r18
    129a:	f1 2c       	mov	r15, r1
    129c:	01 96       	adiw	r24, 0x01	; 1
    129e:	f1 f0       	breq	.+60     	; 0x12dc <_ZN14SetVoltageMode15SavePWMInEepromE10ButtonEnum+0x88>
    12a0:	8f 01       	movw	r16, r30
    12a2:	64 81       	ldd	r22, Z+4	; 0x04
    12a4:	80 a1       	ldd	r24, Z+32	; 0x20
    12a6:	91 a1       	ldd	r25, Z+33	; 0x21
    12a8:	9a 83       	std	Y+2, r25	; 0x02
    12aa:	89 83       	std	Y+1, r24	; 0x01
    12ac:	ce 01       	movw	r24, r28
    12ae:	01 96       	adiw	r24, 0x01	; 1
    12b0:	0e 94 11 09 	call	0x1222	; 0x1222 <_ZN5EERef6updateEh>
    12b4:	d8 01       	movw	r26, r16
    12b6:	54 96       	adiw	r26, 0x14	; 20
    12b8:	8d 91       	ld	r24, X+
    12ba:	9c 91       	ld	r25, X
    12bc:	55 97       	sbiw	r26, 0x15	; 21
    12be:	dc 01       	movw	r26, r24
    12c0:	ed 91       	ld	r30, X+
    12c2:	fc 91       	ld	r31, X
    12c4:	04 84       	ldd	r0, Z+12	; 0x0c
    12c6:	f5 85       	ldd	r31, Z+13	; 0x0d
    12c8:	e0 2d       	mov	r30, r0
    12ca:	b7 01       	movw	r22, r14
    12cc:	09 95       	icall
    12ce:	f8 01       	movw	r30, r16
    12d0:	62 89       	ldd	r22, Z+18	; 0x12
    12d2:	73 89       	ldd	r23, Z+19	; 0x13
    12d4:	80 e0       	ldi	r24, 0x00	; 0
    12d6:	90 e0       	ldi	r25, 0x00	; 0
    12d8:	0e 94 b8 1c 	call	0x3970	; 0x3970 <delay>
    12dc:	0f 90       	pop	r0
    12de:	0f 90       	pop	r0
    12e0:	df 91       	pop	r29
    12e2:	cf 91       	pop	r28
    12e4:	1f 91       	pop	r17
    12e6:	0f 91       	pop	r16
    12e8:	ff 90       	pop	r15
    12ea:	ef 90       	pop	r14
    12ec:	08 95       	ret

000012ee <_ZN14SetVoltageMode10SaveEEPROMEv>:
    12ee:	cf 93       	push	r28
    12f0:	df 93       	push	r29
    12f2:	00 d0       	rcall	.+0      	; 0x12f4 <_ZN14SetVoltageMode10SaveEEPROMEv+0x6>
    12f4:	cd b7       	in	r28, 0x3d	; 61
    12f6:	de b7       	in	r29, 0x3e	; 62
    12f8:	fc 01       	movw	r30, r24
    12fa:	64 81       	ldd	r22, Z+4	; 0x04
    12fc:	86 8d       	ldd	r24, Z+30	; 0x1e
    12fe:	97 8d       	ldd	r25, Z+31	; 0x1f
    1300:	9a 83       	std	Y+2, r25	; 0x02
    1302:	89 83       	std	Y+1, r24	; 0x01
    1304:	ce 01       	movw	r24, r28
    1306:	01 96       	adiw	r24, 0x01	; 1
    1308:	0e 94 11 09 	call	0x1222	; 0x1222 <_ZN5EERef6updateEh>
    130c:	60 e0       	ldi	r22, 0x00	; 0
    130e:	71 e0       	ldi	r23, 0x01	; 1
    1310:	80 e0       	ldi	r24, 0x00	; 0
    1312:	90 e0       	ldi	r25, 0x00	; 0
    1314:	0e 94 b8 1c 	call	0x3970	; 0x3970 <delay>
    1318:	0f 90       	pop	r0
    131a:	0f 90       	pop	r0
    131c:	df 91       	pop	r29
    131e:	cf 91       	pop	r28
    1320:	08 95       	ret

00001322 <_ZN14SetVoltageModeC1EiiP8IDisplay>:
{
} //SetVoltage

SetVoltageMode::SetVoltageMode(int pwmWritePin, int readValuePin, IDisplay* display)
    1322:	cf 92       	push	r12
    1324:	df 92       	push	r13
    1326:	ef 92       	push	r14
    1328:	ff 92       	push	r15
    132a:	cf 93       	push	r28
    132c:	fc 01       	movw	r30, r24
    132e:	c6 2f       	mov	r28, r22
    1330:	ca 01       	movw	r24, r20
    1332:	4f ef       	ldi	r20, 0xFF	; 255
    1334:	5f ef       	ldi	r21, 0xFF	; 255
    1336:	53 83       	std	Z+3, r21	; 0x03
    1338:	42 83       	std	Z+2, r20	; 0x02
    133a:	15 82       	std	Z+5, r1	; 0x05
    133c:	14 82       	std	Z+4, r1	; 0x04
    133e:	c1 2c       	mov	r12, r1
    1340:	d1 2c       	mov	r13, r1
    1342:	40 e8       	ldi	r20, 0x80	; 128
    1344:	e4 2e       	mov	r14, r20
    1346:	4f eb       	ldi	r20, 0xBF	; 191
    1348:	f4 2e       	mov	r15, r20
    134a:	c0 86       	std	Z+8, r12	; 0x08
    134c:	d1 86       	std	Z+9, r13	; 0x09
    134e:	e2 86       	std	Z+10, r14	; 0x0a
    1350:	f3 86       	std	Z+11, r15	; 0x0b
    1352:	40 e0       	ldi	r20, 0x00	; 0
    1354:	54 e0       	ldi	r21, 0x04	; 4
    1356:	57 87       	std	Z+15, r21	; 0x0f
    1358:	46 87       	std	Z+14, r20	; 0x0e
    135a:	40 e0       	ldi	r20, 0x00	; 0
    135c:	5e ee       	ldi	r21, 0xEE	; 238
    135e:	51 8b       	std	Z+17, r21	; 0x11
    1360:	40 8b       	std	Z+16, r20	; 0x10
    1362:	53 8b       	std	Z+19, r21	; 0x13
    1364:	42 8b       	std	Z+18, r20	; 0x12
    1366:	40 e3       	ldi	r20, 0x30	; 48
    1368:	52 e0       	ldi	r21, 0x02	; 2
    136a:	51 83       	std	Z+1, r21	; 0x01
    136c:	40 83       	st	Z, r20
    136e:	c1 2c       	mov	r12, r1
    1370:	d1 2c       	mov	r13, r1
    1372:	58 ea       	ldi	r21, 0xA8	; 168
    1374:	e5 2e       	mov	r14, r21
    1376:	51 e4       	ldi	r21, 0x41	; 65
    1378:	f5 2e       	mov	r15, r21
    137a:	c6 8a       	std	Z+22, r12	; 0x16
    137c:	d7 8a       	std	Z+23, r13	; 0x17
    137e:	e0 8e       	std	Z+24, r14	; 0x18
    1380:	f1 8e       	std	Z+25, r15	; 0x19
    1382:	c1 2c       	mov	r12, r1
    1384:	d1 2c       	mov	r13, r1
    1386:	68 ea       	ldi	r22, 0xA8	; 168
    1388:	e6 2e       	mov	r14, r22
    138a:	6c e3       	ldi	r22, 0x3C	; 60
    138c:	f6 2e       	mov	r15, r22
    138e:	c2 8e       	std	Z+26, r12	; 0x1a
    1390:	d3 8e       	std	Z+27, r13	; 0x1b
    1392:	e4 8e       	std	Z+28, r14	; 0x1c
    1394:	f5 8e       	std	Z+29, r15	; 0x1d
    1396:	41 e0       	ldi	r20, 0x01	; 1
    1398:	50 e0       	ldi	r21, 0x00	; 0
    139a:	57 8f       	std	Z+31, r21	; 0x1f
    139c:	46 8f       	std	Z+30, r20	; 0x1e
    139e:	42 e0       	ldi	r20, 0x02	; 2
    13a0:	50 e0       	ldi	r21, 0x00	; 0
    13a2:	51 a3       	std	Z+33, r21	; 0x21
    13a4:	40 a3       	std	Z+32, r20	; 0x20
    13a6:	43 e0       	ldi	r20, 0x03	; 3
    13a8:	50 e0       	ldi	r21, 0x00	; 0
    13aa:	53 a3       	std	Z+35, r21	; 0x23
    13ac:	42 a3       	std	Z+34, r20	; 0x22
    13ae:	44 e0       	ldi	r20, 0x04	; 4
    13b0:	50 e0       	ldi	r21, 0x00	; 0
    13b2:	55 a3       	std	Z+37, r21	; 0x25
    13b4:	44 a3       	std	Z+36, r20	; 0x24
{
	this->pwmWritePin = pwmWritePin;
    13b6:	c6 83       	std	Z+6, r28	; 0x06
    13b8:	77 83       	std	Z+7, r23	; 0x07
	this->readValuePin = readValuePin;
    13ba:	84 87       	std	Z+12, r24	; 0x0c
    13bc:	95 87       	std	Z+13, r25	; 0x0d
	this->display = display;
    13be:	35 8b       	std	Z+21, r19	; 0x15
    13c0:	24 8b       	std	Z+20, r18	; 0x14
	//pwmValue =100;
	pinMode(readValuePin, INPUT);
    13c2:	60 e0       	ldi	r22, 0x00	; 0
    13c4:	0e 94 df 1d 	call	0x3bbe	; 0x3bbe <pinMode>
	pinMode(pwmWritePin, OUTPUT);
    13c8:	61 e0       	ldi	r22, 0x01	; 1
    13ca:	8c 2f       	mov	r24, r28
} //SetAmperagedMode
    13cc:	cf 91       	pop	r28
    13ce:	ff 90       	pop	r15
    13d0:	ef 90       	pop	r14
    13d2:	df 90       	pop	r13
    13d4:	cf 90       	pop	r12
	this->pwmWritePin = pwmWritePin;
	this->readValuePin = readValuePin;
	this->display = display;
	//pwmValue =100;
	pinMode(readValuePin, INPUT);
	pinMode(pwmWritePin, OUTPUT);
    13d6:	0c 94 df 1d 	jmp	0x3bbe	; 0x3bbe <pinMode>

000013da <_ZN12StandardModeD1Ev>:

#include "StandardMode.h"
#include "ModeEnum.h"

// default constructor
StandardMode::StandardMode()
    13da:	08 95       	ret

000013dc <_ZN12StandardMode11GetTypeModeEv>:
    13dc:	82 e0       	ldi	r24, 0x02	; 2
    13de:	90 e0       	ldi	r25, 0x00	; 0
    13e0:	08 95       	ret

000013e2 <_ZN12StandardMode9PrintModeEv>:
    13e2:	0f 93       	push	r16
    13e4:	1f 93       	push	r17
    13e6:	cf 93       	push	r28
    13e8:	df 93       	push	r29
    13ea:	ec 01       	movw	r28, r24
    13ec:	ec 89       	ldd	r30, Y+20	; 0x14
    13ee:	fd 89       	ldd	r31, Y+21	; 0x15
    13f0:	01 90       	ld	r0, Z+
    13f2:	f0 81       	ld	r31, Z
    13f4:	e0 2d       	mov	r30, r0
    13f6:	02 89       	ldd	r16, Z+18	; 0x12
    13f8:	13 89       	ldd	r17, Z+19	; 0x13
    13fa:	e8 81       	ld	r30, Y
    13fc:	f9 81       	ldd	r31, Y+1	; 0x01
    13fe:	00 84       	ldd	r0, Z+8	; 0x08
    1400:	f1 85       	ldd	r31, Z+9	; 0x09
    1402:	e0 2d       	mov	r30, r0
    1404:	09 95       	icall
    1406:	bc 01       	movw	r22, r24
    1408:	8c 89       	ldd	r24, Y+20	; 0x14
    140a:	9d 89       	ldd	r25, Y+21	; 0x15
    140c:	f8 01       	movw	r30, r16
    140e:	df 91       	pop	r29
    1410:	cf 91       	pop	r28
    1412:	1f 91       	pop	r17
    1414:	0f 91       	pop	r16
    1416:	09 94       	ijmp

00001418 <_ZN12StandardMode10PrintStateEv>:
    1418:	08 95       	ret

0000141a <_ZN12StandardMode15ReadPWMInEepromE10ButtonEnum>:
    141a:	08 95       	ret

0000141c <_ZN12StandardModeD0Ev>:
    141c:	0c 94 de 1a 	jmp	0x35bc	; 0x35bc <_ZdlPv>

00001420 <_ZN12StandardModeC1EP8IDisplay>:
{
} //StandardMode

StandardMode::StandardMode(IDisplay* display)
    1420:	0f 93       	push	r16
    1422:	1f 93       	push	r17
    1424:	fc 01       	movw	r30, r24
    1426:	8f ef       	ldi	r24, 0xFF	; 255
    1428:	9f ef       	ldi	r25, 0xFF	; 255
    142a:	93 83       	std	Z+3, r25	; 0x03
    142c:	82 83       	std	Z+2, r24	; 0x02
    142e:	15 82       	std	Z+5, r1	; 0x05
    1430:	14 82       	std	Z+4, r1	; 0x04
    1432:	97 83       	std	Z+7, r25	; 0x07
    1434:	86 83       	std	Z+6, r24	; 0x06
    1436:	00 e0       	ldi	r16, 0x00	; 0
    1438:	10 e0       	ldi	r17, 0x00	; 0
    143a:	20 e8       	ldi	r18, 0x80	; 128
    143c:	3f eb       	ldi	r19, 0xBF	; 191
    143e:	00 87       	std	Z+8, r16	; 0x08
    1440:	11 87       	std	Z+9, r17	; 0x09
    1442:	22 87       	std	Z+10, r18	; 0x0a
    1444:	33 87       	std	Z+11, r19	; 0x0b
    1446:	95 87       	std	Z+13, r25	; 0x0d
    1448:	84 87       	std	Z+12, r24	; 0x0c
    144a:	80 e0       	ldi	r24, 0x00	; 0
    144c:	94 e0       	ldi	r25, 0x04	; 4
    144e:	97 87       	std	Z+15, r25	; 0x0f
    1450:	86 87       	std	Z+14, r24	; 0x0e
    1452:	80 e0       	ldi	r24, 0x00	; 0
    1454:	9e ee       	ldi	r25, 0xEE	; 238
    1456:	91 8b       	std	Z+17, r25	; 0x11
    1458:	80 8b       	std	Z+16, r24	; 0x10
    145a:	93 8b       	std	Z+19, r25	; 0x13
    145c:	82 8b       	std	Z+18, r24	; 0x12
    145e:	8e e4       	ldi	r24, 0x4E	; 78
    1460:	92 e0       	ldi	r25, 0x02	; 2
    1462:	91 83       	std	Z+1, r25	; 0x01
    1464:	80 83       	st	Z, r24
{
	this->display =display;
    1466:	75 8b       	std	Z+21, r23	; 0x15
    1468:	64 8b       	std	Z+20, r22	; 0x14
} //StandardMode
    146a:	1f 91       	pop	r17
    146c:	0f 91       	pop	r16
    146e:	08 95       	ret

00001470 <_Z22SavePWMVoltageInEepromv>:
	mode->ReadPWMInEeprom(arg);
}

void SavePWMVoltageInEeprom()
{
	if(mode->GetTypeMode() == ModeEnum::SetVoltage )
    1470:	80 91 a0 02 	lds	r24, 0x02A0	; 0x8002a0 <mode>
    1474:	90 91 a1 02 	lds	r25, 0x02A1	; 0x8002a1 <mode+0x1>
    1478:	dc 01       	movw	r26, r24
    147a:	ed 91       	ld	r30, X+
    147c:	fc 91       	ld	r31, X
    147e:	00 84       	ldd	r0, Z+8	; 0x08
    1480:	f1 85       	ldd	r31, Z+9	; 0x09
    1482:	e0 2d       	mov	r30, r0
    1484:	09 95       	icall
    1486:	03 97       	sbiw	r24, 0x03	; 3
    1488:	79 f4       	brne	.+30     	; 0x14a8 <_Z22SavePWMVoltageInEepromv+0x38>
	{
		mode->SavePWMInEeprom(oldCurrenButtonClick);
    148a:	80 91 a0 02 	lds	r24, 0x02A0	; 0x8002a0 <mode>
    148e:	90 91 a1 02 	lds	r25, 0x02A1	; 0x8002a1 <mode+0x1>
    1492:	60 91 06 01 	lds	r22, 0x0106	; 0x800106 <oldCurrenButtonClick>
    1496:	70 91 07 01 	lds	r23, 0x0107	; 0x800107 <oldCurrenButtonClick+0x1>
    149a:	dc 01       	movw	r26, r24
    149c:	ed 91       	ld	r30, X+
    149e:	fc 91       	ld	r31, X
    14a0:	06 88       	ldd	r0, Z+22	; 0x16
    14a2:	f7 89       	ldd	r31, Z+23	; 0x17
    14a4:	e0 2d       	mov	r30, r0
    14a6:	09 94       	ijmp
    14a8:	08 95       	ret

000014aa <_Z19CheckMaxTemperaturev>:
		}
	}
}

void CheckMaxTemperature()
{
    14aa:	cf 93       	push	r28
    14ac:	df 93       	push	r29
	dallasSensors.requestTemperatures();
    14ae:	87 eb       	ldi	r24, 0xB7	; 183
    14b0:	92 e0       	ldi	r25, 0x02	; 2
    14b2:	0e 94 7b 10 	call	0x20f6	; 0x20f6 <_ZN17DallasTemperature19requestTemperaturesEv>
	currentTemperature = max((int)dallasSensors.getTempCByIndex(0), -99);
    14b6:	60 e0       	ldi	r22, 0x00	; 0
    14b8:	87 eb       	ldi	r24, 0xB7	; 183
    14ba:	92 e0       	ldi	r25, 0x02	; 2
    14bc:	0e 94 0c 11 	call	0x2218	; 0x2218 <_ZN17DallasTemperature15getTempCByIndexEh>
    14c0:	0e 94 72 19 	call	0x32e4	; 0x32e4 <__fixsfsi>
    14c4:	6e 39       	cpi	r22, 0x9E	; 158
    14c6:	7f 4f       	sbci	r23, 0xFF	; 255
    14c8:	44 f0       	brlt	.+16     	; 0x14da <_Z19CheckMaxTemperaturev+0x30>
    14ca:	60 e0       	ldi	r22, 0x00	; 0
    14cc:	87 eb       	ldi	r24, 0xB7	; 183
    14ce:	92 e0       	ldi	r25, 0x02	; 2
    14d0:	0e 94 0c 11 	call	0x2218	; 0x2218 <_ZN17DallasTemperature15getTempCByIndexEh>
    14d4:	0e 94 72 19 	call	0x32e4	; 0x32e4 <__fixsfsi>
    14d8:	02 c0       	rjmp	.+4      	; 0x14de <_Z19CheckMaxTemperaturev+0x34>
    14da:	6d e9       	ldi	r22, 0x9D	; 157
    14dc:	7f ef       	ldi	r23, 0xFF	; 255
    14de:	70 93 b6 02 	sts	0x02B6, r23	; 0x8002b6 <currentTemperature+0x1>
    14e2:	60 93 b5 02 	sts	0x02B5, r22	; 0x8002b5 <currentTemperature>
	if(currentTemperature< maxTemperature)
    14e6:	60 35       	cpi	r22, 0x50	; 80
    14e8:	71 05       	cpc	r23, r1
    14ea:	9c f4       	brge	.+38     	; 0x1512 <_Z19CheckMaxTemperaturev+0x68>
	{
		if(temperatuerFuse)
    14ec:	80 91 b4 02 	lds	r24, 0x02B4	; 0x8002b4 <temperatuerFuse>
    14f0:	88 23       	and	r24, r24
    14f2:	79 f1       	breq	.+94     	; 0x1552 <_Z19CheckMaxTemperaturev+0xa8>
		{
			temperatuerFuse = false;
    14f4:	10 92 b4 02 	sts	0x02B4, r1	; 0x8002b4 <temperatuerFuse>
			modes[0]->PrintState();
    14f8:	80 91 a6 02 	lds	r24, 0x02A6	; 0x8002a6 <modes>
    14fc:	90 91 a7 02 	lds	r25, 0x02A7	; 0x8002a7 <modes+0x1>
    1500:	dc 01       	movw	r26, r24
    1502:	ed 91       	ld	r30, X+
    1504:	fc 91       	ld	r31, X
    1506:	06 84       	ldd	r0, Z+14	; 0x0e
    1508:	f7 85       	ldd	r31, Z+15	; 0x0f
    150a:	e0 2d       	mov	r30, r0
		return;
	}
	temperatuerFuse = true;
	mode = modes[0];
	disply->TemperaturePrint(currentTemperature);
}
    150c:	df 91       	pop	r29
    150e:	cf 91       	pop	r28
	if(currentTemperature< maxTemperature)
	{
		if(temperatuerFuse)
		{
			temperatuerFuse = false;
			modes[0]->PrintState();
    1510:	09 94       	ijmp
		}
		return;
	}
	temperatuerFuse = true;
    1512:	81 e0       	ldi	r24, 0x01	; 1
    1514:	80 93 b4 02 	sts	0x02B4, r24	; 0x8002b4 <temperatuerFuse>
	mode = modes[0];
    1518:	80 91 a6 02 	lds	r24, 0x02A6	; 0x8002a6 <modes>
    151c:	90 91 a7 02 	lds	r25, 0x02A7	; 0x8002a7 <modes+0x1>
    1520:	90 93 a1 02 	sts	0x02A1, r25	; 0x8002a1 <mode+0x1>
    1524:	80 93 a0 02 	sts	0x02A0, r24	; 0x8002a0 <mode>
	disply->TemperaturePrint(currentTemperature);
    1528:	c0 91 b0 02 	lds	r28, 0x02B0	; 0x8002b0 <disply>
    152c:	d0 91 b1 02 	lds	r29, 0x02B1	; 0x8002b1 <disply+0x1>
    1530:	07 2e       	mov	r0, r23
    1532:	00 0c       	add	r0, r0
    1534:	88 0b       	sbc	r24, r24
    1536:	99 0b       	sbc	r25, r25
    1538:	0e 94 aa 19 	call	0x3354	; 0x3354 <__floatsisf>
    153c:	ab 01       	movw	r20, r22
    153e:	bc 01       	movw	r22, r24
    1540:	e8 81       	ld	r30, Y
    1542:	f9 81       	ldd	r31, Y+1	; 0x01
    1544:	00 84       	ldd	r0, Z+8	; 0x08
    1546:	f1 85       	ldd	r31, Z+9	; 0x09
    1548:	e0 2d       	mov	r30, r0
    154a:	ce 01       	movw	r24, r28
}
    154c:	df 91       	pop	r29
    154e:	cf 91       	pop	r28
		}
		return;
	}
	temperatuerFuse = true;
	mode = modes[0];
	disply->TemperaturePrint(currentTemperature);
    1550:	09 94       	ijmp
}
    1552:	df 91       	pop	r29
    1554:	cf 91       	pop	r28
    1556:	08 95       	ret

00001558 <setup>:
IMode* funMode;
IMode* oldMode;
IMode* mode;

void setup()
{
    1558:	ef 92       	push	r14
    155a:	ff 92       	push	r15
    155c:	0f 93       	push	r16
    155e:	1f 93       	push	r17
    1560:	cf 93       	push	r28
    1562:	df 93       	push	r29
	TCCR0B = TCCR0B & B11111000 | B00000001;
    1564:	85 b5       	in	r24, 0x25	; 37
    1566:	88 7f       	andi	r24, 0xF8	; 248
    1568:	81 60       	ori	r24, 0x01	; 1
    156a:	85 bd       	out	0x25, r24	; 37
	//TCCR1B = TCCR1B & B11111000 | B00000001;
	
	modes[0] = new OFFMode(disply);
    156c:	86 e1       	ldi	r24, 0x16	; 22
    156e:	90 e0       	ldi	r25, 0x00	; 0
    1570:	0e 94 dc 1a 	call	0x35b8	; 0x35b8 <_Znwj>
    1574:	ec 01       	movw	r28, r24
    1576:	60 91 b0 02 	lds	r22, 0x02B0	; 0x8002b0 <disply>
    157a:	70 91 b1 02 	lds	r23, 0x02B1	; 0x8002b1 <disply+0x1>
    157e:	0e 94 cf 05 	call	0xb9e	; 0xb9e <_ZN7OFFModeC1EP8IDisplay>
    1582:	d0 93 a7 02 	sts	0x02A7, r29	; 0x8002a7 <modes+0x1>
    1586:	c0 93 a6 02 	sts	0x02A6, r28	; 0x8002a6 <modes>
	modes[1] = new StandardMode(disply);
    158a:	86 e1       	ldi	r24, 0x16	; 22
    158c:	90 e0       	ldi	r25, 0x00	; 0
    158e:	0e 94 dc 1a 	call	0x35b8	; 0x35b8 <_Znwj>
    1592:	ec 01       	movw	r28, r24
    1594:	60 91 b0 02 	lds	r22, 0x02B0	; 0x8002b0 <disply>
    1598:	70 91 b1 02 	lds	r23, 0x02B1	; 0x8002b1 <disply+0x1>
    159c:	0e 94 10 0a 	call	0x1420	; 0x1420 <_ZN12StandardModeC1EP8IDisplay>
    15a0:	d0 93 a9 02 	sts	0x02A9, r29	; 0x8002a9 <modes+0x3>
    15a4:	c0 93 a8 02 	sts	0x02A8, r28	; 0x8002a8 <modes+0x2>
	modes[2] = new SetVoltageMode(PWMVoltagesPin, RealVoltagesPin, disply);
    15a8:	86 e2       	ldi	r24, 0x26	; 38
    15aa:	90 e0       	ldi	r25, 0x00	; 0
    15ac:	0e 94 dc 1a 	call	0x35b8	; 0x35b8 <_Znwj>
    15b0:	ec 01       	movw	r28, r24
    15b2:	20 91 b0 02 	lds	r18, 0x02B0	; 0x8002b0 <disply>
    15b6:	30 91 b1 02 	lds	r19, 0x02B1	; 0x8002b1 <disply+0x1>
    15ba:	42 e0       	ldi	r20, 0x02	; 2
    15bc:	50 e0       	ldi	r21, 0x00	; 0
    15be:	6a e0       	ldi	r22, 0x0A	; 10
    15c0:	70 e0       	ldi	r23, 0x00	; 0
    15c2:	0e 94 91 09 	call	0x1322	; 0x1322 <_ZN14SetVoltageModeC1EiiP8IDisplay>
    15c6:	d0 93 ab 02 	sts	0x02AB, r29	; 0x8002ab <modes+0x5>
    15ca:	c0 93 aa 02 	sts	0x02AA, r28	; 0x8002aa <modes+0x4>
	modes[3] = new SetAmperagedMode(PWMAmperagedPin, RealAmperagePin, BackupAmperagePin, StabAmperageLedPin, disply);
    15ce:	8a e2       	ldi	r24, 0x2A	; 42
    15d0:	90 e0       	ldi	r25, 0x00	; 0
    15d2:	0e 94 dc 1a 	call	0x35b8	; 0x35b8 <_Znwj>
    15d6:	ec 01       	movw	r28, r24
    15d8:	e0 90 b0 02 	lds	r14, 0x02B0	; 0x8002b0 <disply>
    15dc:	f0 90 b1 02 	lds	r15, 0x02B1	; 0x8002b1 <disply+0x1>
    15e0:	08 e0       	ldi	r16, 0x08	; 8
    15e2:	10 e0       	ldi	r17, 0x00	; 0
    15e4:	21 e0       	ldi	r18, 0x01	; 1
    15e6:	30 e0       	ldi	r19, 0x00	; 0
    15e8:	40 e0       	ldi	r20, 0x00	; 0
    15ea:	50 e0       	ldi	r21, 0x00	; 0
    15ec:	69 e0       	ldi	r22, 0x09	; 9
    15ee:	70 e0       	ldi	r23, 0x00	; 0
    15f0:	0e 94 91 07 	call	0xf22	; 0xf22 <_ZN16SetAmperagedModeC1EiiiiP8IDisplay>
    15f4:	d0 93 ad 02 	sts	0x02AD, r29	; 0x8002ad <modes+0x7>
    15f8:	c0 93 ac 02 	sts	0x02AC, r28	; 0x8002ac <modes+0x6>
	modes[4] = new PowerMode(modes[2], modes[3], disply);
    15fc:	8a e1       	ldi	r24, 0x1A	; 26
    15fe:	90 e0       	ldi	r25, 0x00	; 0
    1600:	0e 94 dc 1a 	call	0x35b8	; 0x35b8 <_Znwj>
    1604:	ec 01       	movw	r28, r24
    1606:	20 91 b0 02 	lds	r18, 0x02B0	; 0x8002b0 <disply>
    160a:	30 91 b1 02 	lds	r19, 0x02B1	; 0x8002b1 <disply+0x1>
    160e:	40 91 ac 02 	lds	r20, 0x02AC	; 0x8002ac <modes+0x6>
    1612:	50 91 ad 02 	lds	r21, 0x02AD	; 0x8002ad <modes+0x7>
    1616:	60 91 aa 02 	lds	r22, 0x02AA	; 0x8002aa <modes+0x4>
    161a:	70 91 ab 02 	lds	r23, 0x02AB	; 0x8002ab <modes+0x5>
    161e:	0e 94 20 06 	call	0xc40	; 0xc40 <_ZN9PowerModeC1EP5IModeS1_P8IDisplay>
    1622:	d0 93 af 02 	sts	0x02AF, r29	; 0x8002af <modes+0x9>
    1626:	c0 93 ae 02 	sts	0x02AE, r28	; 0x8002ae <modes+0x8>
	funMode = new FunMode(disply, &currentTemperature);
    162a:	8a e1       	ldi	r24, 0x1A	; 26
    162c:	90 e0       	ldi	r25, 0x00	; 0
    162e:	0e 94 dc 1a 	call	0x35b8	; 0x35b8 <_Znwj>
    1632:	ec 01       	movw	r28, r24
    1634:	60 91 b0 02 	lds	r22, 0x02B0	; 0x8002b0 <disply>
    1638:	70 91 b1 02 	lds	r23, 0x02B1	; 0x8002b1 <disply+0x1>
    163c:	45 eb       	ldi	r20, 0xB5	; 181
    163e:	52 e0       	ldi	r21, 0x02	; 2
    1640:	0e 94 7d 05 	call	0xafa	; 0xafa <_ZN7FunModeC1EP8IDisplayPi>
    1644:	d0 93 a5 02 	sts	0x02A5, r29	; 0x8002a5 <funMode+0x1>
    1648:	c0 93 a4 02 	sts	0x02A4, r28	; 0x8002a4 <funMode>
	
	oldMode =  modes[0];
    164c:	80 91 a6 02 	lds	r24, 0x02A6	; 0x8002a6 <modes>
    1650:	90 91 a7 02 	lds	r25, 0x02A7	; 0x8002a7 <modes+0x1>
    1654:	90 93 a3 02 	sts	0x02A3, r25	; 0x8002a3 <oldMode+0x1>
    1658:	80 93 a2 02 	sts	0x02A2, r24	; 0x8002a2 <oldMode>
	mode = modes[0];
    165c:	90 93 a1 02 	sts	0x02A1, r25	; 0x8002a1 <mode+0x1>
    1660:	80 93 a0 02 	sts	0x02A0, r24	; 0x8002a0 <mode>
	
	//РµРЅРєРѕРґРµСЂ
	pinMode(EncoderRightPin, INPUT);//-СЌРЅРєРѕРґРµСЂ РїСЂР°РІРѕ/Р»РµРІРѕ
    1664:	60 e0       	ldi	r22, 0x00	; 0
    1666:	83 e0       	ldi	r24, 0x03	; 3
    1668:	0e 94 df 1d 	call	0x3bbe	; 0x3bbe <pinMode>
	pinMode(EncoderLeftPin, INPUT);//-СЌРЅРєРѕРґРµСЂ РїСЂР°РІРѕ/Р»РµРІРѕ
    166c:	60 e0       	ldi	r22, 0x00	; 0
    166e:	84 e0       	ldi	r24, 0x04	; 4
    1670:	0e 94 df 1d 	call	0x3bbe	; 0x3bbe <pinMode>

	//РєРЅРѕРїРєРё
	pinMode(ButtonPin, INPUT);
    1674:	60 e0       	ldi	r22, 0x00	; 0
    1676:	83 e0       	ldi	r24, 0x03	; 3
    1678:	0e 94 df 1d 	call	0x3bbe	; 0x3bbe <pinMode>

	pinMode(StabAmperageLedPin, OUTPUT);//-СЃРІРµС‚РѕРґРёРѕРґ СЃС‚Р°Р±РёР»РёР·Р°С†РёРё С‚РѕРєР°
    167c:	61 e0       	ldi	r22, 0x01	; 1
    167e:	88 e0       	ldi	r24, 0x08	; 8
    1680:	0e 94 df 1d 	call	0x3bbe	; 0x3bbe <pinMode>
	
	pinMode(PSONPin, OUTPUT); // РІРєР»СЋС‡РµРЅРёРµ Р‘Рџ.
    1684:	61 e0       	ldi	r22, 0x01	; 1
    1686:	87 e0       	ldi	r24, 0x07	; 7
    1688:	0e 94 df 1d 	call	0x3bbe	; 0x3bbe <pinMode>
	
	//РїСЂРµСЂС‹РІР°РЅРёРµ РґР»СЏ СЌРЅРєРѕРґРµСЂР°
	attachInterrupt(INT1, EncoderUpdate, CHANGE);
    168c:	41 e0       	ldi	r20, 0x01	; 1
    168e:	50 e0       	ldi	r21, 0x00	; 0
    1690:	67 e4       	ldi	r22, 0x47	; 71
    1692:	7c e0       	ldi	r23, 0x0C	; 12
    1694:	81 e0       	ldi	r24, 0x01	; 1
    1696:	0e 94 cf 1b 	call	0x379e	; 0x379e <attachInterrupt>
	//РёРЅРёС†РёР°Р»РёР·Р°С†РёСЏ РґР°С‚С‡РёРєР° С‚РµРјРїРµСЂР°С‚СѓСЂС‹
	dallasSensors.setWaitForConversion(false);
    169a:	60 e0       	ldi	r22, 0x00	; 0
    169c:	87 eb       	ldi	r24, 0xB7	; 183
    169e:	92 e0       	ldi	r25, 0x02	; 2
    16a0:	0e 94 12 10 	call	0x2024	; 0x2024 <_ZN17DallasTemperature20setWaitForConversionEb>
	dallasSensors.begin();
    16a4:	87 eb       	ldi	r24, 0xB7	; 183
    16a6:	92 e0       	ldi	r25, 0x02	; 2
    16a8:	0e 94 a8 0f 	call	0x1f50	; 0x1f50 <_ZN17DallasTemperature5beginEv>
	//РёРЅРёС†РёР°Р»РёР·Р°С†РёСЏ С‚Р°Р№РјРµСЂР° Р°РІС‚РѕРјР°С‚РёС‡РµСЃРєРѕРіРѕ РІС‹Р·РѕРґР° РёР· СЂРµР¶РёРјР° СЂРµРґР°РєС‚РёСЂРѕРІР°РЅРёСЏ.
	timerSelectModeResetId = timerSelectModeReset.setInterval(selectModeResetTime, SelectModeReset);
    16ac:	20 e7       	ldi	r18, 0x70	; 112
    16ae:	3c e0       	ldi	r19, 0x0C	; 12
    16b0:	40 e0       	ldi	r20, 0x00	; 0
    16b2:	5e ee       	ldi	r21, 0xEE	; 238
    16b4:	62 e0       	ldi	r22, 0x02	; 2
    16b6:	70 e0       	ldi	r23, 0x00	; 0
    16b8:	85 ee       	ldi	r24, 0xE5	; 229
    16ba:	94 e0       	ldi	r25, 0x04	; 4
    16bc:	0e 94 c8 14 	call	0x2990	; 0x2990 <_ZN11SimpleTimer11setIntervalElPFvvE>
    16c0:	90 93 e0 02 	sts	0x02E0, r25	; 0x8002e0 <timerSelectModeResetId+0x1>
    16c4:	80 93 df 02 	sts	0x02DF, r24	; 0x8002df <timerSelectModeResetId>
	//С‚Р°Р№РјРµСЂ РґР»СЏ РѕС‚СЃС‡РµС‚Р° СѓРґРµСЂР¶Р°РЅРёСЏ РєРЅРѕРїРєРё РїР°РјСЏС‚Рё.
	timerPressButtonTimeId = timerPressButtonTime.setInterval(buttonSavePWMVoltageInEepromTime, SavePWMVoltageInEeprom);
    16c8:	28 e3       	ldi	r18, 0x38	; 56
    16ca:	3a e0       	ldi	r19, 0x0A	; 10
    16cc:	40 e0       	ldi	r20, 0x00	; 0
    16ce:	5e ee       	ldi	r21, 0xEE	; 238
    16d0:	62 e0       	ldi	r22, 0x02	; 2
    16d2:	70 e0       	ldi	r23, 0x00	; 0
    16d4:	89 e3       	ldi	r24, 0x39	; 57
    16d6:	94 e0       	ldi	r25, 0x04	; 4
    16d8:	0e 94 c8 14 	call	0x2990	; 0x2990 <_ZN11SimpleTimer11setIntervalElPFvvE>
    16dc:	90 93 de 02 	sts	0x02DE, r25	; 0x8002de <timerPressButtonTimeId+0x1>
    16e0:	80 93 dd 02 	sts	0x02DD, r24	; 0x8002dd <timerPressButtonTimeId>
	//С‚Р°Р№РјРµСЂ РґР»СЏ РїСЂРѕРІРµСЂРєРё РїСЂРµРІС‹С€РµРЅРёСЏ С‚РµРјРїРµСЂР°С‚СѓСЂС‹
	timerUpdateTemperatureId = timerUpdateTemperature.setInterval(timeUpdateTemperature, CheckMaxTemperature);
    16e4:	25 e5       	ldi	r18, 0x55	; 85
    16e6:	3a e0       	ldi	r19, 0x0A	; 10
    16e8:	40 e0       	ldi	r20, 0x00	; 0
    16ea:	5d e7       	ldi	r21, 0x7D	; 125
    16ec:	60 e0       	ldi	r22, 0x00	; 0
    16ee:	70 e0       	ldi	r23, 0x00	; 0
    16f0:	8d e8       	ldi	r24, 0x8D	; 141
    16f2:	93 e0       	ldi	r25, 0x03	; 3
    16f4:	0e 94 c8 14 	call	0x2990	; 0x2990 <_ZN11SimpleTimer11setIntervalElPFvvE>
    16f8:	90 93 dc 02 	sts	0x02DC, r25	; 0x8002dc <timerUpdateTemperatureId+0x1>
    16fc:	80 93 db 02 	sts	0x02DB, r24	; 0x8002db <timerUpdateTemperatureId>
	//С‚Р°Р№РјРµСЂ СЂРµРіРёСЃС‚СЂР°С†РёРё РєРѕР»РёС‡РµСЃС‚РІРѕ РЅР°Р¶Р°С‚РёСЏ РєРЅРѕРїРєРё СЌРЅРєРѕРґРµСЂР°
	timerRegEncoderButtonId = timerRegEncoderButton.setInterval(timeRegEncoderButton, RegEncoderButton);
    1700:	2d ed       	ldi	r18, 0xDD	; 221
    1702:	3c e0       	ldi	r19, 0x0C	; 12
    1704:	40 e0       	ldi	r20, 0x00	; 0
    1706:	5d e7       	ldi	r21, 0x7D	; 125
    1708:	60 e0       	ldi	r22, 0x00	; 0
    170a:	70 e0       	ldi	r23, 0x00	; 0
    170c:	81 ee       	ldi	r24, 0xE1	; 225
    170e:	92 e0       	ldi	r25, 0x02	; 2
    1710:	0e 94 c8 14 	call	0x2990	; 0x2990 <_ZN11SimpleTimer11setIntervalElPFvvE>
    1714:	90 93 da 02 	sts	0x02DA, r25	; 0x8002da <timerRegEncoderButtonId+0x1>
    1718:	80 93 d9 02 	sts	0x02D9, r24	; 0x8002d9 <timerRegEncoderButtonId>

	//РёРЅРёС†РёР°Р»РёР·Р°С†РёСЏ РґРёСЃРїР»РµСЏ Рё СЃС‚Р°СЂС‚РѕРІР°СЏ Р·Р°СЃС‚Р°РІРєР°.
	disply->InitDisplay(strVer);
    171c:	80 91 b0 02 	lds	r24, 0x02B0	; 0x8002b0 <disply>
    1720:	90 91 b1 02 	lds	r25, 0x02B1	; 0x8002b1 <disply+0x1>
    1724:	60 91 08 01 	lds	r22, 0x0108	; 0x800108 <strVer>
    1728:	70 91 09 01 	lds	r23, 0x0109	; 0x800109 <strVer+0x1>
    172c:	dc 01       	movw	r26, r24
    172e:	ed 91       	ld	r30, X+
    1730:	fc 91       	ld	r31, X
    1732:	04 80       	ldd	r0, Z+4	; 0x04
    1734:	f5 81       	ldd	r31, Z+5	; 0x05
    1736:	e0 2d       	mov	r30, r0
    1738:	09 95       	icall
    173a:	c6 ea       	ldi	r28, 0xA6	; 166
    173c:	d2 e0       	ldi	r29, 0x02	; 2
	//РІРѕСЃС‚Р°РѕРІРјРё РЅР°СЃС‚СЂРѕР№РєРё РёР· РїР°РјСЏС‚Рё.
	for(int i=0;i<modesCount;i++)
	{
		modes[i]->ReadEEPROM();
    173e:	89 91       	ld	r24, Y+
    1740:	99 91       	ld	r25, Y+
    1742:	dc 01       	movw	r26, r24
    1744:	ed 91       	ld	r30, X+
    1746:	fc 91       	ld	r31, X
    1748:	04 84       	ldd	r0, Z+12	; 0x0c
    174a:	f5 85       	ldd	r31, Z+13	; 0x0d
    174c:	e0 2d       	mov	r30, r0
    174e:	09 95       	icall
	timerRegEncoderButtonId = timerRegEncoderButton.setInterval(timeRegEncoderButton, RegEncoderButton);

	//РёРЅРёС†РёР°Р»РёР·Р°С†РёСЏ РґРёСЃРїР»РµСЏ Рё СЃС‚Р°СЂС‚РѕРІР°СЏ Р·Р°СЃС‚Р°РІРєР°.
	disply->InitDisplay(strVer);
	//РІРѕСЃС‚Р°РѕРІРјРё РЅР°СЃС‚СЂРѕР№РєРё РёР· РїР°РјСЏС‚Рё.
	for(int i=0;i<modesCount;i++)
    1750:	b2 e0       	ldi	r27, 0x02	; 2
    1752:	c0 3b       	cpi	r28, 0xB0	; 176
    1754:	db 07       	cpc	r29, r27
    1756:	99 f7       	brne	.-26     	; 0x173e <setup+0x1e6>
	{
		modes[i]->ReadEEPROM();
	}
	funMode->ReadEEPROM();
    1758:	80 91 a4 02 	lds	r24, 0x02A4	; 0x8002a4 <funMode>
    175c:	90 91 a5 02 	lds	r25, 0x02A5	; 0x8002a5 <funMode+0x1>
    1760:	dc 01       	movw	r26, r24
    1762:	ed 91       	ld	r30, X+
    1764:	fc 91       	ld	r31, X
    1766:	04 84       	ldd	r0, Z+12	; 0x0c
    1768:	f5 85       	ldd	r31, Z+13	; 0x0d
    176a:	e0 2d       	mov	r30, r0
    176c:	09 95       	icall

	delay(logoTime);
    176e:	60 e0       	ldi	r22, 0x00	; 0
    1770:	74 ef       	ldi	r23, 0xF4	; 244
    1772:	80 e0       	ldi	r24, 0x00	; 0
    1774:	90 e0       	ldi	r25, 0x00	; 0
    1776:	0e 94 b8 1c 	call	0x3970	; 0x3970 <delay>
	mode->PrintState();
    177a:	80 91 a0 02 	lds	r24, 0x02A0	; 0x8002a0 <mode>
    177e:	90 91 a1 02 	lds	r25, 0x02A1	; 0x8002a1 <mode+0x1>
    1782:	dc 01       	movw	r26, r24
    1784:	ed 91       	ld	r30, X+
    1786:	fc 91       	ld	r31, X
    1788:	06 84       	ldd	r0, Z+14	; 0x0e
    178a:	f7 85       	ldd	r31, Z+15	; 0x0f
    178c:	e0 2d       	mov	r30, r0
}
    178e:	df 91       	pop	r29
    1790:	cf 91       	pop	r28
    1792:	1f 91       	pop	r17
    1794:	0f 91       	pop	r16
    1796:	ff 90       	pop	r15
    1798:	ef 90       	pop	r14
		modes[i]->ReadEEPROM();
	}
	funMode->ReadEEPROM();

	delay(logoTime);
	mode->PrintState();
    179a:	09 94       	ijmp

0000179c <_Z13OnPowerSeplayv>:
	disply->TemperaturePrint(currentTemperature);
}

void OnPowerSeplay()
{
	digitalWrite(PSONPin, mode->GetTypeMode() == ModeEnum::OFF
    179c:	80 91 a0 02 	lds	r24, 0x02A0	; 0x8002a0 <mode>
    17a0:	90 91 a1 02 	lds	r25, 0x02A1	; 0x8002a1 <mode+0x1>
    17a4:	dc 01       	movw	r26, r24
    17a6:	ed 91       	ld	r30, X+
    17a8:	fc 91       	ld	r31, X
    17aa:	00 84       	ldd	r0, Z+8	; 0x08
    17ac:	f1 85       	ldd	r31, Z+9	; 0x09
    17ae:	e0 2d       	mov	r30, r0
    17b0:	09 95       	icall
    17b2:	01 97       	sbiw	r24, 0x01	; 1
    17b4:	d9 f0       	breq	.+54     	; 0x17ec <_Z13OnPowerSeplayv+0x50>
	||  (mode->GetTypeMode() == ModeEnum::FunMode
    17b6:	80 91 a0 02 	lds	r24, 0x02A0	; 0x8002a0 <mode>
    17ba:	90 91 a1 02 	lds	r25, 0x02A1	; 0x8002a1 <mode+0x1>
    17be:	dc 01       	movw	r26, r24
    17c0:	ed 91       	ld	r30, X+
    17c2:	fc 91       	ld	r31, X
    17c4:	00 84       	ldd	r0, Z+8	; 0x08
    17c6:	f1 85       	ldd	r31, Z+9	; 0x09
    17c8:	e0 2d       	mov	r30, r0
    17ca:	09 95       	icall
	disply->TemperaturePrint(currentTemperature);
}

void OnPowerSeplay()
{
	digitalWrite(PSONPin, mode->GetTypeMode() == ModeEnum::OFF
    17cc:	05 97       	sbiw	r24, 0x05	; 5
    17ce:	81 f4       	brne	.+32     	; 0x17f0 <_Z13OnPowerSeplayv+0x54>
	||  (mode->GetTypeMode() == ModeEnum::FunMode
	&& oldMode->GetTypeMode() == ModeEnum::OFF) ? LOW:HIGH);
    17d0:	80 91 a2 02 	lds	r24, 0x02A2	; 0x8002a2 <oldMode>
    17d4:	90 91 a3 02 	lds	r25, 0x02A3	; 0x8002a3 <oldMode+0x1>
    17d8:	dc 01       	movw	r26, r24
    17da:	ed 91       	ld	r30, X+
    17dc:	fc 91       	ld	r31, X
    17de:	00 84       	ldd	r0, Z+8	; 0x08
    17e0:	f1 85       	ldd	r31, Z+9	; 0x09
    17e2:	e0 2d       	mov	r30, r0
    17e4:	09 95       	icall
    17e6:	61 e0       	ldi	r22, 0x01	; 1
    17e8:	01 97       	sbiw	r24, 0x01	; 1
    17ea:	19 f4       	brne	.+6      	; 0x17f2 <_Z13OnPowerSeplayv+0x56>
	disply->TemperaturePrint(currentTemperature);
}

void OnPowerSeplay()
{
	digitalWrite(PSONPin, mode->GetTypeMode() == ModeEnum::OFF
    17ec:	60 e0       	ldi	r22, 0x00	; 0
    17ee:	01 c0       	rjmp	.+2      	; 0x17f2 <_Z13OnPowerSeplayv+0x56>
    17f0:	61 e0       	ldi	r22, 0x01	; 1
	||  (mode->GetTypeMode() == ModeEnum::FunMode
	&& oldMode->GetTypeMode() == ModeEnum::OFF) ? LOW:HIGH);
    17f2:	87 e0       	ldi	r24, 0x07	; 7
    17f4:	0c 94 1b 1e 	jmp	0x3c36	; 0x3c36 <digitalWrite>

000017f8 <_Z22ReadPWMVoltageInEeprom10ButtonEnum>:
	SaveModeValueInEeprom();
	mode = modes[1];
}

void ReadPWMVoltageInEeprom(ButtonEnum arg)
{
    17f8:	cf 93       	push	r28
    17fa:	df 93       	push	r29
    17fc:	ec 01       	movw	r28, r24
	if(mode->GetTypeMode() != ModeEnum::SetVoltage ) return;
    17fe:	80 91 a0 02 	lds	r24, 0x02A0	; 0x8002a0 <mode>
    1802:	90 91 a1 02 	lds	r25, 0x02A1	; 0x8002a1 <mode+0x1>
    1806:	dc 01       	movw	r26, r24
    1808:	ed 91       	ld	r30, X+
    180a:	fc 91       	ld	r31, X
    180c:	00 84       	ldd	r0, Z+8	; 0x08
    180e:	f1 85       	ldd	r31, Z+9	; 0x09
    1810:	e0 2d       	mov	r30, r0
    1812:	09 95       	icall
    1814:	03 97       	sbiw	r24, 0x03	; 3
    1816:	71 f4       	brne	.+28     	; 0x1834 <_Z22ReadPWMVoltageInEeprom10ButtonEnum+0x3c>
	mode->ReadPWMInEeprom(arg);
    1818:	80 91 a0 02 	lds	r24, 0x02A0	; 0x8002a0 <mode>
    181c:	90 91 a1 02 	lds	r25, 0x02A1	; 0x8002a1 <mode+0x1>
    1820:	dc 01       	movw	r26, r24
    1822:	ed 91       	ld	r30, X+
    1824:	fc 91       	ld	r31, X
    1826:	00 8c       	ldd	r0, Z+24	; 0x18
    1828:	f1 8d       	ldd	r31, Z+25	; 0x19
    182a:	e0 2d       	mov	r30, r0
    182c:	be 01       	movw	r22, r28
}
    182e:	df 91       	pop	r29
    1830:	cf 91       	pop	r28
}

void ReadPWMVoltageInEeprom(ButtonEnum arg)
{
	if(mode->GetTypeMode() != ModeEnum::SetVoltage ) return;
	mode->ReadPWMInEeprom(arg);
    1832:	09 94       	ijmp
}
    1834:	df 91       	pop	r29
    1836:	cf 91       	pop	r28
    1838:	08 95       	ret

0000183a <_Z7ReadADCv>:
		mode->SavePWMInEeprom(oldCurrenButtonClick);
	}
}

void ReadADC()
{
    183a:	cf 93       	push	r28
    183c:	df 93       	push	r29
    183e:	c6 ea       	ldi	r28, 0xA6	; 166
    1840:	d2 e0       	ldi	r29, 0x02	; 2
	for(int i=0;i<modesCount; i++)
	{
		modes[i]->ReadADC();
    1842:	89 91       	ld	r24, Y+
    1844:	99 91       	ld	r25, Y+
    1846:	dc 01       	movw	r26, r24
    1848:	ed 91       	ld	r30, X+
    184a:	fc 91       	ld	r31, X
    184c:	00 88       	ldd	r0, Z+16	; 0x10
    184e:	f1 89       	ldd	r31, Z+17	; 0x11
    1850:	e0 2d       	mov	r30, r0
    1852:	09 95       	icall
	}
}

void ReadADC()
{
	for(int i=0;i<modesCount; i++)
    1854:	b2 e0       	ldi	r27, 0x02	; 2
    1856:	c0 3b       	cpi	r28, 0xB0	; 176
    1858:	db 07       	cpc	r29, r27
    185a:	99 f7       	brne	.-26     	; 0x1842 <_Z7ReadADCv+0x8>
	{
		modes[i]->ReadADC();
	}
}
    185c:	df 91       	pop	r29
    185e:	cf 91       	pop	r28
    1860:	08 95       	ret

00001862 <_Z21IncrementEncoderValuev>:
	countEncoderButtonClick = 0;
}

void IncrementEncoderValue()
{
	mode->IncrementEncoderValue();
    1862:	80 91 a0 02 	lds	r24, 0x02A0	; 0x8002a0 <mode>
    1866:	90 91 a1 02 	lds	r25, 0x02A1	; 0x8002a1 <mode+0x1>
    186a:	dc 01       	movw	r26, r24
    186c:	ed 91       	ld	r30, X+
    186e:	fc 91       	ld	r31, X
    1870:	04 80       	ldd	r0, Z+4	; 0x04
    1872:	f5 81       	ldd	r31, Z+5	; 0x05
    1874:	e0 2d       	mov	r30, r0
    1876:	09 94       	ijmp

00001878 <_Z21DecrementEncoderValuev>:
}

void DecrementEncoderValue()
{
	mode->DecrementEncoderValue();
    1878:	80 91 a0 02 	lds	r24, 0x02A0	; 0x8002a0 <mode>
    187c:	90 91 a1 02 	lds	r25, 0x02A1	; 0x8002a1 <mode+0x1>
    1880:	dc 01       	movw	r26, r24
    1882:	ed 91       	ld	r30, X+
    1884:	fc 91       	ld	r31, X
    1886:	06 80       	ldd	r0, Z+6	; 0x06
    1888:	f7 81       	ldd	r31, Z+7	; 0x07
    188a:	e0 2d       	mov	r30, r0
    188c:	09 94       	ijmp

0000188e <_Z13EncoderUpdatev>:
		modes[i]->ReadADC();
	}
}

void EncoderUpdate()
{
    188e:	cf 93       	push	r28
    1890:	df 93       	push	r29
	int pinAValue = digitalRead(EncoderRightPin);            // РџРѕР»СѓС‡Р°РµРј СЃРѕСЃС‚РѕСЏРЅРёРµ РїРёРЅРѕРІ A Рё B
    1892:	83 e0       	ldi	r24, 0x03	; 3
    1894:	0e 94 4a 1e 	call	0x3c94	; 0x3c94 <digitalRead>
    1898:	ec 01       	movw	r28, r24
	int pinBValue = digitalRead(EncoderLeftPin);
    189a:	84 e0       	ldi	r24, 0x04	; 4
    189c:	0e 94 4a 1e 	call	0x3c94	; 0x3c94 <digitalRead>
	int state =0;
	cli();    // Р—Р°РїСЂРµС‰Р°РµРј РѕР±СЂР°Р±РѕС‚РєСѓ РїСЂРµСЂС‹РІР°РЅРёР№, С‡С‚РѕР±С‹ РЅРµ РѕС‚РІР»РµРєР°С‚СЊСЃСЏ
    18a0:	f8 94       	cli
	if (!pinAValue &&  pinBValue)
    18a2:	cd 2b       	or	r28, r29
    18a4:	21 f4       	brne	.+8      	; 0x18ae <_Z13EncoderUpdatev+0x20>
	{
		state = 1;  // Р•СЃР»Рё РїСЂРё СЃРїР°РґРµ Р»РёРЅРёРё Рђ РЅР° Р»РёРЅРёРё B Р»РѕРі. РµРґРёРЅРёС†Р°, С‚Рѕ РІСЂР°С‰РµРЅРёРµ РІ РѕРґРЅСѓ СЃС‚РѕСЂРѕРЅСѓ
	}
	if (!pinAValue && !pinBValue)
    18a6:	89 2b       	or	r24, r25
    18a8:	69 f0       	breq	.+26     	; 0x18c4 <_Z13EncoderUpdatev+0x36>
		if (state == -1 && !pinBValue)
		{
			IncrementEncoderValue();
		}
		if( state == 1 && pinBValue) { // Р•СЃР»Рё РЅР° Р»РёРЅРёРё Рђ СЃРЅРѕРІР° РµРґРёРЅРёС†Р°, С„РёРєСЃРёСЂСѓРµРј С€Р°Рі
			DecrementEncoderValue();
    18aa:	0e 94 3c 0c 	call	0x1878	; 0x1878 <_Z21DecrementEncoderValuev>
		}
	}
	sei(); // Р Р°Р·СЂРµС€Р°РµРј РѕР±СЂР°Р±РѕС‚РєСѓ РїСЂРµСЂС‹РІР°РЅРёР№
    18ae:	78 94       	sei
	timerSelectModeReset.restartTimer(timerSelectModeResetId);
    18b0:	60 91 df 02 	lds	r22, 0x02DF	; 0x8002df <timerSelectModeResetId>
    18b4:	70 91 e0 02 	lds	r23, 0x02E0	; 0x8002e0 <timerSelectModeResetId+0x1>
    18b8:	85 ee       	ldi	r24, 0xE5	; 229
    18ba:	94 e0       	ldi	r25, 0x04	; 4
}
    18bc:	df 91       	pop	r29
    18be:	cf 91       	pop	r28
		if( state == 1 && pinBValue) { // Р•СЃР»Рё РЅР° Р»РёРЅРёРё Рђ СЃРЅРѕРІР° РµРґРёРЅРёС†Р°, С„РёРєСЃРёСЂСѓРµРј С€Р°Рі
			DecrementEncoderValue();
		}
	}
	sei(); // Р Р°Р·СЂРµС€Р°РµРј РѕР±СЂР°Р±РѕС‚РєСѓ РїСЂРµСЂС‹РІР°РЅРёР№
	timerSelectModeReset.restartTimer(timerSelectModeResetId);
    18c0:	0c 94 d5 15 	jmp	0x2baa	; 0x2baa <_ZN11SimpleTimer12restartTimerEi>
		state = -1; // Р•СЃР»Рё РїСЂРё СЃРїР°РґРµ Р»РёРЅРёРё Рђ РЅР° Р»РёРЅРёРё B Р»РѕРі. РЅРѕР»СЊ, С‚Рѕ РІСЂР°С‰РµРЅРёРµ РІ РґСЂСѓРіСѓСЋ СЃС‚РѕСЂРѕРЅСѓ
	}
	if (!pinAValue && state != 0) {
		if (state == -1 && !pinBValue)
		{
			IncrementEncoderValue();
    18c4:	0e 94 31 0c 	call	0x1862	; 0x1862 <_Z21IncrementEncoderValuev>
    18c8:	f2 cf       	rjmp	.-28     	; 0x18ae <_Z13EncoderUpdatev+0x20>

000018ca <_Z21SaveModeValueInEepromv>:
	}
}

void SaveModeValueInEeprom()
{
	mode->SaveEEPROM();
    18ca:	80 91 a0 02 	lds	r24, 0x02A0	; 0x8002a0 <mode>
    18ce:	90 91 a1 02 	lds	r25, 0x02A1	; 0x8002a1 <mode+0x1>
    18d2:	dc 01       	movw	r26, r24
    18d4:	ed 91       	ld	r30, X+
    18d6:	fc 91       	ld	r31, X
    18d8:	02 84       	ldd	r0, Z+10	; 0x0a
    18da:	f3 85       	ldd	r31, Z+11	; 0x0b
    18dc:	e0 2d       	mov	r30, r0
    18de:	09 94       	ijmp

000018e0 <_Z15SelectModeResetv>:
	&& oldMode->GetTypeMode() == ModeEnum::OFF) ? LOW:HIGH);
}

void SelectModeReset()
{
	if(mode->GetTypeMode() == ModeEnum::OFF
    18e0:	80 91 a0 02 	lds	r24, 0x02A0	; 0x8002a0 <mode>
    18e4:	90 91 a1 02 	lds	r25, 0x02A1	; 0x8002a1 <mode+0x1>
    18e8:	dc 01       	movw	r26, r24
    18ea:	ed 91       	ld	r30, X+
    18ec:	fc 91       	ld	r31, X
    18ee:	00 84       	ldd	r0, Z+8	; 0x08
    18f0:	f1 85       	ldd	r31, Z+9	; 0x09
    18f2:	e0 2d       	mov	r30, r0
    18f4:	09 95       	icall
	|| mode->GetTypeMode() == ModeEnum::Standard
	|| mode->GetTypeMode() == ModeEnum::FunMode) return;
    18f6:	01 97       	sbiw	r24, 0x01	; 1
    18f8:	21 f1       	breq	.+72     	; 0x1942 <_Z15SelectModeResetv+0x62>
}

void SelectModeReset()
{
	if(mode->GetTypeMode() == ModeEnum::OFF
	|| mode->GetTypeMode() == ModeEnum::Standard
    18fa:	80 91 a0 02 	lds	r24, 0x02A0	; 0x8002a0 <mode>
    18fe:	90 91 a1 02 	lds	r25, 0x02A1	; 0x8002a1 <mode+0x1>
    1902:	dc 01       	movw	r26, r24
    1904:	ed 91       	ld	r30, X+
    1906:	fc 91       	ld	r31, X
    1908:	00 84       	ldd	r0, Z+8	; 0x08
    190a:	f1 85       	ldd	r31, Z+9	; 0x09
    190c:	e0 2d       	mov	r30, r0
    190e:	09 95       	icall
    1910:	02 97       	sbiw	r24, 0x02	; 2
    1912:	b9 f0       	breq	.+46     	; 0x1942 <_Z15SelectModeResetv+0x62>
	|| mode->GetTypeMode() == ModeEnum::FunMode) return;
    1914:	80 91 a0 02 	lds	r24, 0x02A0	; 0x8002a0 <mode>
    1918:	90 91 a1 02 	lds	r25, 0x02A1	; 0x8002a1 <mode+0x1>
    191c:	dc 01       	movw	r26, r24
    191e:	ed 91       	ld	r30, X+
    1920:	fc 91       	ld	r31, X
    1922:	00 84       	ldd	r0, Z+8	; 0x08
    1924:	f1 85       	ldd	r31, Z+9	; 0x09
    1926:	e0 2d       	mov	r30, r0
    1928:	09 95       	icall
    192a:	05 97       	sbiw	r24, 0x05	; 5
    192c:	51 f0       	breq	.+20     	; 0x1942 <_Z15SelectModeResetv+0x62>
	SaveModeValueInEeprom();
    192e:	0e 94 65 0c 	call	0x18ca	; 0x18ca <_Z21SaveModeValueInEepromv>
	mode = modes[1];
    1932:	80 91 a8 02 	lds	r24, 0x02A8	; 0x8002a8 <modes+0x2>
    1936:	90 91 a9 02 	lds	r25, 0x02A9	; 0x8002a9 <modes+0x3>
    193a:	90 93 a1 02 	sts	0x02A1, r25	; 0x8002a1 <mode+0x1>
    193e:	80 93 a0 02 	sts	0x02A0, r24	; 0x8002a0 <mode>
    1942:	08 95       	ret

00001944 <_Z13ModeSelectionv>:
	mode->DecrementEncoderValue();
}

void ModeSelection()
{
	switch(mode->GetTypeMode())
    1944:	80 91 a0 02 	lds	r24, 0x02A0	; 0x8002a0 <mode>
    1948:	90 91 a1 02 	lds	r25, 0x02A1	; 0x8002a1 <mode+0x1>
    194c:	dc 01       	movw	r26, r24
    194e:	ed 91       	ld	r30, X+
    1950:	fc 91       	ld	r31, X
    1952:	00 84       	ldd	r0, Z+8	; 0x08
    1954:	f1 85       	ldd	r31, Z+9	; 0x09
    1956:	e0 2d       	mov	r30, r0
    1958:	09 95       	icall
    195a:	82 30       	cpi	r24, 0x02	; 2
    195c:	91 05       	cpc	r25, r1
    195e:	b1 f0       	breq	.+44     	; 0x198c <_Z13ModeSelectionv+0x48>
    1960:	1c f4       	brge	.+6      	; 0x1968 <_Z13ModeSelectionv+0x24>
    1962:	01 97       	sbiw	r24, 0x01	; 1
    1964:	39 f0       	breq	.+14     	; 0x1974 <_Z13ModeSelectionv+0x30>
    1966:	08 95       	ret
    1968:	83 30       	cpi	r24, 0x03	; 3
    196a:	91 05       	cpc	r25, r1
    196c:	a1 f0       	breq	.+40     	; 0x1996 <_Z13ModeSelectionv+0x52>
    196e:	04 97       	sbiw	r24, 0x04	; 4
    1970:	c9 f0       	breq	.+50     	; 0x19a4 <_Z13ModeSelectionv+0x60>
    1972:	08 95       	ret
	{
		case ModeEnum::OFF:
		{
			disply->Clear();
    1974:	80 91 b0 02 	lds	r24, 0x02B0	; 0x8002b0 <disply>
    1978:	90 91 b1 02 	lds	r25, 0x02B1	; 0x8002b1 <disply+0x1>
    197c:	dc 01       	movw	r26, r24
    197e:	ed 91       	ld	r30, X+
    1980:	fc 91       	ld	r31, X
    1982:	04 88       	ldd	r0, Z+20	; 0x14
    1984:	f5 89       	ldd	r31, Z+21	; 0x15
    1986:	e0 2d       	mov	r30, r0
    1988:	09 95       	icall
    198a:	0e c0       	rjmp	.+28     	; 0x19a8 <_Z13ModeSelectionv+0x64>
			mode = modes[1];
			break;
		}
		case ModeEnum::Standard:
		{
			mode = modes[2];
    198c:	80 91 aa 02 	lds	r24, 0x02AA	; 0x8002aa <modes+0x4>
    1990:	90 91 ab 02 	lds	r25, 0x02AB	; 0x8002ab <modes+0x5>
    1994:	0d c0       	rjmp	.+26     	; 0x19b0 <_Z13ModeSelectionv+0x6c>
			break;
		}
		case ModeEnum::SetVoltage:
		{
			SaveModeValueInEeprom();
    1996:	0e 94 65 0c 	call	0x18ca	; 0x18ca <_Z21SaveModeValueInEepromv>
			mode =  modes[3];
    199a:	80 91 ac 02 	lds	r24, 0x02AC	; 0x8002ac <modes+0x6>
    199e:	90 91 ad 02 	lds	r25, 0x02AD	; 0x8002ad <modes+0x7>
    19a2:	06 c0       	rjmp	.+12     	; 0x19b0 <_Z13ModeSelectionv+0x6c>
			break;
		}
		case ModeEnum::SetAmperaged:
		{
			SaveModeValueInEeprom();
    19a4:	0e 94 65 0c 	call	0x18ca	; 0x18ca <_Z21SaveModeValueInEepromv>
			mode =   modes[1];
    19a8:	80 91 a8 02 	lds	r24, 0x02A8	; 0x8002a8 <modes+0x2>
    19ac:	90 91 a9 02 	lds	r25, 0x02A9	; 0x8002a9 <modes+0x3>
    19b0:	90 93 a1 02 	sts	0x02A1, r25	; 0x8002a1 <mode+0x1>
    19b4:	80 93 a0 02 	sts	0x02A0, r24	; 0x8002a0 <mode>
    19b8:	08 95       	ret

000019ba <_Z16RegEncoderButtonv>:
	timerSelectModeReset.restartTimer(timerSelectModeResetId);
}

void RegEncoderButton()
{
	if(countEncoderButtonClick == 0)
    19ba:	80 91 b2 02 	lds	r24, 0x02B2	; 0x8002b2 <countEncoderButtonClick>
    19be:	90 91 b3 02 	lds	r25, 0x02B3	; 0x8002b3 <countEncoderButtonClick+0x1>
    19c2:	89 2b       	or	r24, r25
    19c4:	09 f4       	brne	.+2      	; 0x19c8 <_Z16RegEncoderButtonv+0xe>
    19c6:	69 c0       	rjmp	.+210    	; 0x1a9a <_Z16RegEncoderButtonv+0xe0>
	{
		return;
	}
	if(mode->GetTypeMode() !=ModeEnum::OFF
    19c8:	80 91 a0 02 	lds	r24, 0x02A0	; 0x8002a0 <mode>
    19cc:	90 91 a1 02 	lds	r25, 0x02A1	; 0x8002a1 <mode+0x1>
    19d0:	dc 01       	movw	r26, r24
    19d2:	ed 91       	ld	r30, X+
    19d4:	fc 91       	ld	r31, X
    19d6:	00 84       	ldd	r0, Z+8	; 0x08
    19d8:	f1 85       	ldd	r31, Z+9	; 0x09
    19da:	e0 2d       	mov	r30, r0
    19dc:	09 95       	icall
    19de:	20 91 b2 02 	lds	r18, 0x02B2	; 0x8002b2 <countEncoderButtonClick>
    19e2:	30 91 b3 02 	lds	r19, 0x02B3	; 0x8002b3 <countEncoderButtonClick+0x1>
	&& countEncoderButtonClick >= 5)
    19e6:	01 97       	sbiw	r24, 0x01	; 1
    19e8:	31 f1       	breq	.+76     	; 0x1a36 <_Z16RegEncoderButtonv+0x7c>
    19ea:	25 30       	cpi	r18, 0x05	; 5
    19ec:	31 05       	cpc	r19, r1
    19ee:	1c f1       	brlt	.+70     	; 0x1a36 <_Z16RegEncoderButtonv+0x7c>
	{
		mode = modes[0];
    19f0:	80 91 a6 02 	lds	r24, 0x02A6	; 0x8002a6 <modes>
    19f4:	90 91 a7 02 	lds	r25, 0x02A7	; 0x8002a7 <modes+0x1>
    19f8:	90 93 a1 02 	sts	0x02A1, r25	; 0x8002a1 <mode+0x1>
    19fc:	80 93 a0 02 	sts	0x02A0, r24	; 0x8002a0 <mode>
		disply->Clear();
    1a00:	80 91 b0 02 	lds	r24, 0x02B0	; 0x8002b0 <disply>
    1a04:	90 91 b1 02 	lds	r25, 0x02B1	; 0x8002b1 <disply+0x1>
    1a08:	dc 01       	movw	r26, r24
    1a0a:	ed 91       	ld	r30, X+
    1a0c:	fc 91       	ld	r31, X
    1a0e:	04 88       	ldd	r0, Z+20	; 0x14
    1a10:	f5 89       	ldd	r31, Z+21	; 0x15
    1a12:	e0 2d       	mov	r30, r0
    1a14:	09 95       	icall
		mode->PrintState();
    1a16:	80 91 a0 02 	lds	r24, 0x02A0	; 0x8002a0 <mode>
    1a1a:	90 91 a1 02 	lds	r25, 0x02A1	; 0x8002a1 <mode+0x1>
    1a1e:	dc 01       	movw	r26, r24
    1a20:	ed 91       	ld	r30, X+
    1a22:	fc 91       	ld	r31, X
    1a24:	06 84       	ldd	r0, Z+14	; 0x0e
    1a26:	f7 85       	ldd	r31, Z+15	; 0x0f
    1a28:	e0 2d       	mov	r30, r0
    1a2a:	09 95       	icall
	}
	else
	{
		ModeSelection();
	}
	countEncoderButtonClick = 0;
    1a2c:	10 92 b3 02 	sts	0x02B3, r1	; 0x8002b3 <countEncoderButtonClick+0x1>
    1a30:	10 92 b2 02 	sts	0x02B2, r1	; 0x8002b2 <countEncoderButtonClick>
    1a34:	08 95       	ret
    1a36:	80 91 a0 02 	lds	r24, 0x02A0	; 0x8002a0 <mode>
    1a3a:	90 91 a1 02 	lds	r25, 0x02A1	; 0x8002a1 <mode+0x1>
	{
		mode = modes[0];
		disply->Clear();
		mode->PrintState();
	}
	else if(countEncoderButtonClick == 3)
    1a3e:	23 30       	cpi	r18, 0x03	; 3
    1a40:	31 05       	cpc	r19, r1
    1a42:	d1 f4       	brne	.+52     	; 0x1a78 <_Z16RegEncoderButtonv+0xbe>
	{
		if(mode->GetTypeMode() != ModeEnum::FunMode)
    1a44:	dc 01       	movw	r26, r24
    1a46:	ed 91       	ld	r30, X+
    1a48:	fc 91       	ld	r31, X
    1a4a:	00 84       	ldd	r0, Z+8	; 0x08
    1a4c:	f1 85       	ldd	r31, Z+9	; 0x09
    1a4e:	e0 2d       	mov	r30, r0
    1a50:	09 95       	icall
    1a52:	05 97       	sbiw	r24, 0x05	; 5
    1a54:	41 f0       	breq	.+16     	; 0x1a66 <_Z16RegEncoderButtonv+0xac>
		{
			oldMode = mode;
    1a56:	80 91 a0 02 	lds	r24, 0x02A0	; 0x8002a0 <mode>
    1a5a:	90 91 a1 02 	lds	r25, 0x02A1	; 0x8002a1 <mode+0x1>
    1a5e:	90 93 a3 02 	sts	0x02A3, r25	; 0x8002a3 <oldMode+0x1>
    1a62:	80 93 a2 02 	sts	0x02A2, r24	; 0x8002a2 <oldMode>
		}
		mode = funMode;
    1a66:	80 91 a4 02 	lds	r24, 0x02A4	; 0x8002a4 <funMode>
    1a6a:	90 91 a5 02 	lds	r25, 0x02A5	; 0x8002a5 <funMode+0x1>
    1a6e:	90 93 a1 02 	sts	0x02A1, r25	; 0x8002a1 <mode+0x1>
    1a72:	80 93 a0 02 	sts	0x02A0, r24	; 0x8002a0 <mode>
    1a76:	d3 cf       	rjmp	.-90     	; 0x1a1e <_Z16RegEncoderButtonv+0x64>
		mode->PrintState();
	}
	else if(mode->GetTypeMode() ==ModeEnum::FunMode)
    1a78:	dc 01       	movw	r26, r24
    1a7a:	ed 91       	ld	r30, X+
    1a7c:	fc 91       	ld	r31, X
    1a7e:	00 84       	ldd	r0, Z+8	; 0x08
    1a80:	f1 85       	ldd	r31, Z+9	; 0x09
    1a82:	e0 2d       	mov	r30, r0
    1a84:	09 95       	icall
    1a86:	05 97       	sbiw	r24, 0x05	; 5
    1a88:	29 f4       	brne	.+10     	; 0x1a94 <_Z16RegEncoderButtonv+0xda>
	{
		mode =oldMode;
    1a8a:	80 91 a2 02 	lds	r24, 0x02A2	; 0x8002a2 <oldMode>
    1a8e:	90 91 a3 02 	lds	r25, 0x02A3	; 0x8002a3 <oldMode+0x1>
    1a92:	b2 cf       	rjmp	.-156    	; 0x19f8 <_Z16RegEncoderButtonv+0x3e>
		disply->Clear();
		mode->PrintState();
	}
	else
	{
		ModeSelection();
    1a94:	0e 94 a2 0c 	call	0x1944	; 0x1944 <_Z13ModeSelectionv>
    1a98:	c9 cf       	rjmp	.-110    	; 0x1a2c <_Z16RegEncoderButtonv+0x72>
    1a9a:	08 95       	ret

00001a9c <_Z15OnButtonUpClick10ButtonEnum>:
	}
}

void OnButtonUpClick(ButtonEnum arg)
{
	ReadPWMVoltageInEeprom(arg);
    1a9c:	0e 94 fc 0b 	call	0x17f8	; 0x17f8 <_Z22ReadPWMVoltageInEeprom10ButtonEnum>
	timerSelectModeReset.restartTimer(timerSelectModeResetId);
    1aa0:	60 91 df 02 	lds	r22, 0x02DF	; 0x8002df <timerSelectModeResetId>
    1aa4:	70 91 e0 02 	lds	r23, 0x02E0	; 0x8002e0 <timerSelectModeResetId+0x1>
    1aa8:	85 ee       	ldi	r24, 0xE5	; 229
    1aaa:	94 e0       	ldi	r25, 0x04	; 4
    1aac:	0c 94 d5 15 	jmp	0x2baa	; 0x2baa <_ZN11SimpleTimer12restartTimerEi>

00001ab0 <_Z15PressButtonTimev>:
}

void PressButtonTime()
{
	if(oldCurrenButtonClick == ButtonEnum::MemoryButton1
    1ab0:	80 91 06 01 	lds	r24, 0x0106	; 0x800106 <oldCurrenButtonClick>
    1ab4:	90 91 07 01 	lds	r25, 0x0107	; 0x800107 <oldCurrenButtonClick+0x1>
    1ab8:	04 97       	sbiw	r24, 0x04	; 4
    1aba:	60 f4       	brcc	.+24     	; 0x1ad4 <_Z15PressButtonTimev+0x24>
	|| oldCurrenButtonClick == ButtonEnum::MemoryButton2
	|| oldCurrenButtonClick == ButtonEnum::MemoryButton3
	|| oldCurrenButtonClick == ButtonEnum::EncoderButton)
	{
		timerPressButtonTime.run();
    1abc:	89 e3       	ldi	r24, 0x39	; 57
    1abe:	94 e0       	ldi	r25, 0x04	; 4
    1ac0:	0e 94 10 15 	call	0x2a20	; 0x2a20 <_ZN11SimpleTimer3runEv>
		timerSelectModeReset.restartTimer(timerSelectModeResetId);
    1ac4:	60 91 df 02 	lds	r22, 0x02DF	; 0x8002df <timerSelectModeResetId>
    1ac8:	70 91 e0 02 	lds	r23, 0x02E0	; 0x8002e0 <timerSelectModeResetId+0x1>
    1acc:	85 ee       	ldi	r24, 0xE5	; 229
    1ace:	94 e0       	ldi	r25, 0x04	; 4
    1ad0:	0c 94 d5 15 	jmp	0x2baa	; 0x2baa <_ZN11SimpleTimer12restartTimerEi>
    1ad4:	08 95       	ret

00001ad6 <_Z17OnButtonDownClick10ButtonEnum>:
	}
}

void OnButtonDownClick(ButtonEnum arg)
{
    1ad6:	cf 93       	push	r28
    1ad8:	df 93       	push	r29
    1ada:	ec 01       	movw	r28, r24
	timerPressButtonTime.restartTimer(timerPressButtonTimeId);
    1adc:	60 91 dd 02 	lds	r22, 0x02DD	; 0x8002dd <timerPressButtonTimeId>
    1ae0:	70 91 de 02 	lds	r23, 0x02DE	; 0x8002de <timerPressButtonTimeId+0x1>
    1ae4:	89 e3       	ldi	r24, 0x39	; 57
    1ae6:	94 e0       	ldi	r25, 0x04	; 4
    1ae8:	0e 94 d5 15 	call	0x2baa	; 0x2baa <_ZN11SimpleTimer12restartTimerEi>
	if(arg == ButtonEnum::EncoderButton)
    1aec:	23 97       	sbiw	r28, 0x03	; 3
    1aee:	d9 f4       	brne	.+54     	; 0x1b26 <_Z17OnButtonDownClick10ButtonEnum+0x50>
	{
		countEncoderButtonClick++;
    1af0:	80 91 b2 02 	lds	r24, 0x02B2	; 0x8002b2 <countEncoderButtonClick>
    1af4:	90 91 b3 02 	lds	r25, 0x02B3	; 0x8002b3 <countEncoderButtonClick+0x1>
    1af8:	01 96       	adiw	r24, 0x01	; 1
    1afa:	90 93 b3 02 	sts	0x02B3, r25	; 0x8002b3 <countEncoderButtonClick+0x1>
    1afe:	80 93 b2 02 	sts	0x02B2, r24	; 0x8002b2 <countEncoderButtonClick>
		timerSelectModeReset.restartTimer(timerSelectModeResetId);
    1b02:	60 91 df 02 	lds	r22, 0x02DF	; 0x8002df <timerSelectModeResetId>
    1b06:	70 91 e0 02 	lds	r23, 0x02E0	; 0x8002e0 <timerSelectModeResetId+0x1>
    1b0a:	85 ee       	ldi	r24, 0xE5	; 229
    1b0c:	94 e0       	ldi	r25, 0x04	; 4
    1b0e:	0e 94 d5 15 	call	0x2baa	; 0x2baa <_ZN11SimpleTimer12restartTimerEi>
		timerRegEncoderButton.restartTimer(timerRegEncoderButtonId);
    1b12:	60 91 d9 02 	lds	r22, 0x02D9	; 0x8002d9 <timerRegEncoderButtonId>
    1b16:	70 91 da 02 	lds	r23, 0x02DA	; 0x8002da <timerRegEncoderButtonId+0x1>
    1b1a:	81 ee       	ldi	r24, 0xE1	; 225
    1b1c:	92 e0       	ldi	r25, 0x02	; 2
	}
}
    1b1e:	df 91       	pop	r29
    1b20:	cf 91       	pop	r28
	timerPressButtonTime.restartTimer(timerPressButtonTimeId);
	if(arg == ButtonEnum::EncoderButton)
	{
		countEncoderButtonClick++;
		timerSelectModeReset.restartTimer(timerSelectModeResetId);
		timerRegEncoderButton.restartTimer(timerRegEncoderButtonId);
    1b22:	0c 94 d5 15 	jmp	0x2baa	; 0x2baa <_ZN11SimpleTimer12restartTimerEi>
	}
}
    1b26:	df 91       	pop	r29
    1b28:	cf 91       	pop	r28
    1b2a:	08 95       	ret

00001b2c <_Z14GetButtonClickv>:
{
	mode->SaveEEPROM();
}

void GetButtonClick()
{
    1b2c:	cf 93       	push	r28
    1b2e:	df 93       	push	r29
	int input = analogRead(ButtonPin);
    1b30:	83 e0       	ldi	r24, 0x03	; 3
    1b32:	0e 94 3a 1d 	call	0x3a74	; 0x3a74 <analogRead>
	for(int i = 0; i < buttonCount; i++)
	{
		if(input < adcKeyValue[i])
    1b36:	8e 31       	cpi	r24, 0x1E	; 30
    1b38:	91 05       	cpc	r25, r1
    1b3a:	8c f0       	brlt	.+34     	; 0x1b5e <_Z14GetButtonClickv+0x32>
    1b3c:	8b 39       	cpi	r24, 0x9B	; 155
    1b3e:	91 05       	cpc	r25, r1
    1b40:	8c f0       	brlt	.+34     	; 0x1b64 <_Z14GetButtonClickv+0x38>
    1b42:	84 3f       	cpi	r24, 0xF4	; 244
    1b44:	21 e0       	ldi	r18, 0x01	; 1
    1b46:	92 07       	cpc	r25, r18
    1b48:	84 f0       	brlt	.+32     	; 0x1b6a <_Z14GetButtonClickv+0x3e>
    1b4a:	87 31       	cpi	r24, 0x17	; 23
    1b4c:	22 e0       	ldi	r18, 0x02	; 2
    1b4e:	92 07       	cpc	r25, r18
    1b50:	7c f0       	brlt	.+30     	; 0x1b70 <_Z14GetButtonClickv+0x44>
    1b52:	84 31       	cpi	r24, 0x14	; 20
    1b54:	95 40       	sbci	r25, 0x05	; 5
    1b56:	3c f5       	brge	.+78     	; 0x1ba6 <_Z14GetButtonClickv+0x7a>
}

void GetButtonClick()
{
	int input = analogRead(ButtonPin);
	for(int i = 0; i < buttonCount; i++)
    1b58:	c4 e0       	ldi	r28, 0x04	; 4
    1b5a:	d0 e0       	ldi	r29, 0x00	; 0
    1b5c:	0b c0       	rjmp	.+22     	; 0x1b74 <_Z14GetButtonClickv+0x48>
    1b5e:	c0 e0       	ldi	r28, 0x00	; 0
    1b60:	d0 e0       	ldi	r29, 0x00	; 0
    1b62:	08 c0       	rjmp	.+16     	; 0x1b74 <_Z14GetButtonClickv+0x48>
    1b64:	c1 e0       	ldi	r28, 0x01	; 1
    1b66:	d0 e0       	ldi	r29, 0x00	; 0
    1b68:	05 c0       	rjmp	.+10     	; 0x1b74 <_Z14GetButtonClickv+0x48>
    1b6a:	c2 e0       	ldi	r28, 0x02	; 2
    1b6c:	d0 e0       	ldi	r29, 0x00	; 0
    1b6e:	02 c0       	rjmp	.+4      	; 0x1b74 <_Z14GetButtonClickv+0x48>
    1b70:	c3 e0       	ldi	r28, 0x03	; 3
    1b72:	d0 e0       	ldi	r29, 0x00	; 0
	{
		if(input < adcKeyValue[i])
		{
			ButtonEnum currenButtonClick = static_cast<ButtonEnum>(i);
			if(oldCurrenButtonClick != currenButtonClick)
    1b74:	80 91 06 01 	lds	r24, 0x0106	; 0x800106 <oldCurrenButtonClick>
    1b78:	90 91 07 01 	lds	r25, 0x0107	; 0x800107 <oldCurrenButtonClick+0x1>
    1b7c:	8c 17       	cp	r24, r28
    1b7e:	9d 07       	cpc	r25, r29
    1b80:	71 f0       	breq	.+28     	; 0x1b9e <_Z14GetButtonClickv+0x72>
			{
				OnButtonDownClick(currenButtonClick);
    1b82:	ce 01       	movw	r24, r28
    1b84:	0e 94 6b 0d 	call	0x1ad6	; 0x1ad6 <_Z17OnButtonDownClick10ButtonEnum>
				OnButtonUpClick(oldCurrenButtonClick);
    1b88:	80 91 06 01 	lds	r24, 0x0106	; 0x800106 <oldCurrenButtonClick>
    1b8c:	90 91 07 01 	lds	r25, 0x0107	; 0x800107 <oldCurrenButtonClick+0x1>
    1b90:	0e 94 4e 0d 	call	0x1a9c	; 0x1a9c <_Z15OnButtonUpClick10ButtonEnum>
				oldCurrenButtonClick = currenButtonClick;
    1b94:	d0 93 07 01 	sts	0x0107, r29	; 0x800107 <oldCurrenButtonClick+0x1>
    1b98:	c0 93 06 01 	sts	0x0106, r28	; 0x800106 <oldCurrenButtonClick>
    1b9c:	04 c0       	rjmp	.+8      	; 0x1ba6 <_Z14GetButtonClickv+0x7a>
				PressButtonTime();
			}
			break;
		}
	}
}
    1b9e:	df 91       	pop	r29
    1ba0:	cf 91       	pop	r28
				OnButtonUpClick(oldCurrenButtonClick);
				oldCurrenButtonClick = currenButtonClick;
			}
			else
			{
				PressButtonTime();
    1ba2:	0c 94 58 0d 	jmp	0x1ab0	; 0x1ab0 <_Z15PressButtonTimev>
			}
			break;
		}
	}
}
    1ba6:	df 91       	pop	r29
    1ba8:	cf 91       	pop	r28
    1baa:	08 95       	ret

00001bac <loop>:
	mode->PrintState();
}

// Add the main program code into the continuous loop() function
void loop()
{
    1bac:	0f 93       	push	r16
    1bae:	1f 93       	push	r17
    1bb0:	cf 93       	push	r28
    1bb2:	df 93       	push	r29
	OnPowerSeplay();
    1bb4:	0e 94 ce 0b 	call	0x179c	; 0x179c <_Z13OnPowerSeplayv>
	GetButtonClick();
    1bb8:	0e 94 96 0d 	call	0x1b2c	; 0x1b2c <_Z14GetButtonClickv>
	
	timerSelectModeReset.run();
    1bbc:	85 ee       	ldi	r24, 0xE5	; 229
    1bbe:	94 e0       	ldi	r25, 0x04	; 4
    1bc0:	0e 94 10 15 	call	0x2a20	; 0x2a20 <_ZN11SimpleTimer3runEv>
	timerUpdateTemperature.run();
    1bc4:	8d e8       	ldi	r24, 0x8D	; 141
    1bc6:	93 e0       	ldi	r25, 0x03	; 3
    1bc8:	0e 94 10 15 	call	0x2a20	; 0x2a20 <_ZN11SimpleTimer3runEv>
	timerRegEncoderButton.run();
    1bcc:	81 ee       	ldi	r24, 0xE1	; 225
    1bce:	92 e0       	ldi	r25, 0x02	; 2
    1bd0:	0e 94 10 15 	call	0x2a20	; 0x2a20 <_ZN11SimpleTimer3runEv>
	
	mode->PrintMode();
    1bd4:	80 91 a0 02 	lds	r24, 0x02A0	; 0x8002a0 <mode>
    1bd8:	90 91 a1 02 	lds	r25, 0x02A1	; 0x8002a1 <mode+0x1>
    1bdc:	dc 01       	movw	r26, r24
    1bde:	ed 91       	ld	r30, X+
    1be0:	fc 91       	ld	r31, X
    1be2:	04 88       	ldd	r0, Z+20	; 0x14
    1be4:	f5 89       	ldd	r31, Z+21	; 0x15
    1be6:	e0 2d       	mov	r30, r0
    1be8:	09 95       	icall
	
	funMode->WritePWM();
    1bea:	80 91 a4 02 	lds	r24, 0x02A4	; 0x8002a4 <funMode>
    1bee:	90 91 a5 02 	lds	r25, 0x02A5	; 0x8002a5 <funMode+0x1>
    1bf2:	dc 01       	movw	r26, r24
    1bf4:	ed 91       	ld	r30, X+
    1bf6:	fc 91       	ld	r31, X
    1bf8:	02 88       	ldd	r0, Z+18	; 0x12
    1bfa:	f3 89       	ldd	r31, Z+19	; 0x13
    1bfc:	e0 2d       	mov	r30, r0
    1bfe:	09 95       	icall
	
	if(mode->GetTypeMode() == ModeEnum::OFF
    1c00:	80 91 a0 02 	lds	r24, 0x02A0	; 0x8002a0 <mode>
    1c04:	90 91 a1 02 	lds	r25, 0x02A1	; 0x8002a1 <mode+0x1>
    1c08:	dc 01       	movw	r26, r24
    1c0a:	ed 91       	ld	r30, X+
    1c0c:	fc 91       	ld	r31, X
    1c0e:	00 84       	ldd	r0, Z+8	; 0x08
    1c10:	f1 85       	ldd	r31, Z+9	; 0x09
    1c12:	e0 2d       	mov	r30, r0
    1c14:	09 95       	icall
	|| (mode->GetTypeMode() == ModeEnum::FunMode
    1c16:	01 97       	sbiw	r24, 0x01	; 1
    1c18:	09 f4       	brne	.+2      	; 0x1c1c <loop+0x70>
    1c1a:	62 c0       	rjmp	.+196    	; 0x1ce0 <loop+0x134>
    1c1c:	80 91 a0 02 	lds	r24, 0x02A0	; 0x8002a0 <mode>
    1c20:	90 91 a1 02 	lds	r25, 0x02A1	; 0x8002a1 <mode+0x1>
    1c24:	dc 01       	movw	r26, r24
    1c26:	ed 91       	ld	r30, X+
    1c28:	fc 91       	ld	r31, X
    1c2a:	00 84       	ldd	r0, Z+8	; 0x08
    1c2c:	f1 85       	ldd	r31, Z+9	; 0x09
    1c2e:	e0 2d       	mov	r30, r0
    1c30:	09 95       	icall
    1c32:	05 97       	sbiw	r24, 0x05	; 5
    1c34:	71 f4       	brne	.+28     	; 0x1c52 <loop+0xa6>
	&& oldMode->GetTypeMode() == ModeEnum::OFF)) return;
    1c36:	80 91 a2 02 	lds	r24, 0x02A2	; 0x8002a2 <oldMode>
    1c3a:	90 91 a3 02 	lds	r25, 0x02A3	; 0x8002a3 <oldMode+0x1>
    1c3e:	dc 01       	movw	r26, r24
    1c40:	ed 91       	ld	r30, X+
    1c42:	fc 91       	ld	r31, X
    1c44:	00 84       	ldd	r0, Z+8	; 0x08
    1c46:	f1 85       	ldd	r31, Z+9	; 0x09
    1c48:	e0 2d       	mov	r30, r0
    1c4a:	09 95       	icall
    1c4c:	01 97       	sbiw	r24, 0x01	; 1
    1c4e:	09 f4       	brne	.+2      	; 0x1c52 <loop+0xa6>
    1c50:	47 c0       	rjmp	.+142    	; 0x1ce0 <loop+0x134>
    1c52:	c6 ea       	ldi	r28, 0xA6	; 166
    1c54:	d2 e0       	ldi	r29, 0x02	; 2
    1c56:	00 eb       	ldi	r16, 0xB0	; 176
    1c58:	12 e0       	ldi	r17, 0x02	; 2

	for(int i=0;i<modesCount; i++)
	{
		modes[i]->WritePWM();
    1c5a:	89 91       	ld	r24, Y+
    1c5c:	99 91       	ld	r25, Y+
    1c5e:	dc 01       	movw	r26, r24
    1c60:	ed 91       	ld	r30, X+
    1c62:	fc 91       	ld	r31, X
    1c64:	02 88       	ldd	r0, Z+18	; 0x12
    1c66:	f3 89       	ldd	r31, Z+19	; 0x13
    1c68:	e0 2d       	mov	r30, r0
    1c6a:	09 95       	icall
	
	if(mode->GetTypeMode() == ModeEnum::OFF
	|| (mode->GetTypeMode() == ModeEnum::FunMode
	&& oldMode->GetTypeMode() == ModeEnum::OFF)) return;

	for(int i=0;i<modesCount; i++)
    1c6c:	0c 17       	cp	r16, r28
    1c6e:	1d 07       	cpc	r17, r29
    1c70:	a1 f7       	brne	.-24     	; 0x1c5a <loop+0xae>
	{
		modes[i]->WritePWM();
	}

	ReadADC();
    1c72:	0e 94 1d 0c 	call	0x183a	; 0x183a <_Z7ReadADCv>
	if(mode->GetTypeMode() == ModeEnum::Standard
    1c76:	80 91 a0 02 	lds	r24, 0x02A0	; 0x8002a0 <mode>
    1c7a:	90 91 a1 02 	lds	r25, 0x02A1	; 0x8002a1 <mode+0x1>
    1c7e:	dc 01       	movw	r26, r24
    1c80:	ed 91       	ld	r30, X+
    1c82:	fc 91       	ld	r31, X
    1c84:	00 84       	ldd	r0, Z+8	; 0x08
    1c86:	f1 85       	ldd	r31, Z+9	; 0x09
    1c88:	e0 2d       	mov	r30, r0
    1c8a:	09 95       	icall
	||mode->GetTypeMode() == ModeEnum::SetAmperaged
	||mode->GetTypeMode() == ModeEnum::SetVoltage )
    1c8c:	02 97       	sbiw	r24, 0x02	; 2
    1c8e:	d1 f0       	breq	.+52     	; 0x1cc4 <loop+0x118>
		modes[i]->WritePWM();
	}

	ReadADC();
	if(mode->GetTypeMode() == ModeEnum::Standard
	||mode->GetTypeMode() == ModeEnum::SetAmperaged
    1c90:	80 91 a0 02 	lds	r24, 0x02A0	; 0x8002a0 <mode>
    1c94:	90 91 a1 02 	lds	r25, 0x02A1	; 0x8002a1 <mode+0x1>
    1c98:	dc 01       	movw	r26, r24
    1c9a:	ed 91       	ld	r30, X+
    1c9c:	fc 91       	ld	r31, X
    1c9e:	00 84       	ldd	r0, Z+8	; 0x08
    1ca0:	f1 85       	ldd	r31, Z+9	; 0x09
    1ca2:	e0 2d       	mov	r30, r0
    1ca4:	09 95       	icall
    1ca6:	04 97       	sbiw	r24, 0x04	; 4
    1ca8:	69 f0       	breq	.+26     	; 0x1cc4 <loop+0x118>
	||mode->GetTypeMode() == ModeEnum::SetVoltage )
    1caa:	80 91 a0 02 	lds	r24, 0x02A0	; 0x8002a0 <mode>
    1cae:	90 91 a1 02 	lds	r25, 0x02A1	; 0x8002a1 <mode+0x1>
    1cb2:	dc 01       	movw	r26, r24
    1cb4:	ed 91       	ld	r30, X+
    1cb6:	fc 91       	ld	r31, X
    1cb8:	00 84       	ldd	r0, Z+8	; 0x08
    1cba:	f1 85       	ldd	r31, Z+9	; 0x09
    1cbc:	e0 2d       	mov	r30, r0
    1cbe:	09 95       	icall
    1cc0:	03 97       	sbiw	r24, 0x03	; 3
    1cc2:	71 f4       	brne	.+28     	; 0x1ce0 <loop+0x134>
    1cc4:	c8 ea       	ldi	r28, 0xA8	; 168
    1cc6:	d2 e0       	ldi	r29, 0x02	; 2
	{
		for(int i=1;i<modesCount; i++)
		{
			modes[i]->PrintState();
    1cc8:	89 91       	ld	r24, Y+
    1cca:	99 91       	ld	r25, Y+
    1ccc:	dc 01       	movw	r26, r24
    1cce:	ed 91       	ld	r30, X+
    1cd0:	fc 91       	ld	r31, X
    1cd2:	06 84       	ldd	r0, Z+14	; 0x0e
    1cd4:	f7 85       	ldd	r31, Z+15	; 0x0f
    1cd6:	e0 2d       	mov	r30, r0
    1cd8:	09 95       	icall
	ReadADC();
	if(mode->GetTypeMode() == ModeEnum::Standard
	||mode->GetTypeMode() == ModeEnum::SetAmperaged
	||mode->GetTypeMode() == ModeEnum::SetVoltage )
	{
		for(int i=1;i<modesCount; i++)
    1cda:	0c 17       	cp	r16, r28
    1cdc:	1d 07       	cpc	r17, r29
    1cde:	a1 f7       	brne	.-24     	; 0x1cc8 <loop+0x11c>
		{
			modes[i]->PrintState();
		}
	}
}
    1ce0:	df 91       	pop	r29
    1ce2:	cf 91       	pop	r28
    1ce4:	1f 91       	pop	r17
    1ce6:	0f 91       	pop	r16
    1ce8:	08 95       	ret

00001cea <_GLOBAL__sub_I_strVer>:
	{
		countEncoderButtonClick++;
		timerSelectModeReset.restartTimer(timerSelectModeResetId);
		timerRegEncoderButton.restartTimer(timerRegEncoderButtonId);
	}
}
    1cea:	cf 93       	push	r28
    1cec:	df 93       	push	r29
//End of Auto generated function prototypes by Atmel Studio
#pragma endregion

const char* strVer ="ver 1.0";

SimpleTimer timerSelectModeReset; // С‚Р°Р№РјРµСЂ СЃР±СЂРѕСЃР° СЂРµР¶РёРјР° СЂРµРґР°РєС‚РёСЂРѕРІР°РЅРёСЏ
    1cee:	85 ee       	ldi	r24, 0xE5	; 229
    1cf0:	94 e0       	ldi	r25, 0x04	; 4
    1cf2:	0e 94 23 14 	call	0x2846	; 0x2846 <_ZN11SimpleTimerC1Ev>
SimpleTimer timerPressButtonTime;// С‚Р°Р№РјРµСЂ СѓРґРµСЂР¶Р°РЅРёСЏ РєРЅРѕРїРєРё РґР»СЏ Р·Р°РїРёСЃРё РІ EEPROM
    1cf6:	89 e3       	ldi	r24, 0x39	; 57
    1cf8:	94 e0       	ldi	r25, 0x04	; 4
    1cfa:	0e 94 23 14 	call	0x2846	; 0x2846 <_ZN11SimpleTimerC1Ev>
SimpleTimer timerUpdateTemperature;// С‚Р°Р№РјРµСЂ СѓРґРµСЂР¶Р°РЅРёСЏ РєРЅРѕРїРєРё РґР»СЏ Р·Р°РїРёСЃРё РІ EEPROM
    1cfe:	8d e8       	ldi	r24, 0x8D	; 141
    1d00:	93 e0       	ldi	r25, 0x03	; 3
    1d02:	0e 94 23 14 	call	0x2846	; 0x2846 <_ZN11SimpleTimerC1Ev>
SimpleTimer timerRegEncoderButton;
    1d06:	81 ee       	ldi	r24, 0xE1	; 225
    1d08:	92 e0       	ldi	r25, 0x02	; 2
    1d0a:	0e 94 23 14 	call	0x2846	; 0x2846 <_ZN11SimpleTimerC1Ev>
    uint8_t LastFamilyDiscrepancy;
    bool LastDeviceFlag;
#endif

  public:
    OneWire(uint8_t pin) { begin(pin); }
    1d0e:	6c e0       	ldi	r22, 0x0C	; 12
    1d10:	8b ec       	ldi	r24, 0xCB	; 203
    1d12:	92 e0       	ldi	r25, 0x02	; 2
    1d14:	0e 94 61 13 	call	0x26c2	; 0x26c2 <_ZN7OneWire5beginEh>

//С‚РµРјРїРµСЂР°С‚СѓСЂР°
// РЎРѕР·РґР°РµРј РѕР±СЉРµРєС‚ OneWire
OneWire oneWire(TemperaturePin);
// РЎРѕР·РґР°РµРј РѕР±СЉРµРєС‚ DallasTemperature РґР»СЏ СЂР°Р±РѕС‚С‹ СЃ СЃРµРЅСЃРѕСЂР°РјРё, РїРµСЂРµРґР°РІР°СЏ РµРјСѓ СЃСЃС‹Р»РєСѓ РЅР° РѕР±СЉРµРєС‚ РґР»СЏ СЂР°Р±РѕС‚С‹ СЃ 1-Wire.
DallasTemperature dallasSensors(&oneWire);
    1d18:	6b ec       	ldi	r22, 0xCB	; 203
    1d1a:	72 e0       	ldi	r23, 0x02	; 2
    1d1c:	87 eb       	ldi	r24, 0xB7	; 183
    1d1e:	92 e0       	ldi	r25, 0x02	; 2
    1d20:	0e 94 be 0e 	call	0x1d7c	; 0x1d7c <_ZN17DallasTemperatureC1EP7OneWire>
int const maxTemperature = 80;
bool temperatuerFuse = false;

int countEncoderButtonClick =0; //РєРѕР»РёС‡РµСЃС‚РІРѕ РЅР°Р¶Р°С‚РёР№ РєРЅРѕРїРєРё СЌРЅРєРѕРґРµСЂР°.

IDisplay* disply = new Display16x2();
    1d24:	82 e0       	ldi	r24, 0x02	; 2
    1d26:	90 e0       	ldi	r25, 0x00	; 0
    1d28:	0e 94 dc 1a 	call	0x35b8	; 0x35b8 <_Znwj>
    1d2c:	ec 01       	movw	r28, r24
    1d2e:	0e 94 9d 04 	call	0x93a	; 0x93a <_ZN11Display16x2C1Ev>
    1d32:	d0 93 b1 02 	sts	0x02B1, r29	; 0x8002b1 <disply+0x1>
    1d36:	c0 93 b0 02 	sts	0x02B0, r28	; 0x8002b0 <disply>
	{
		countEncoderButtonClick++;
		timerSelectModeReset.restartTimer(timerSelectModeResetId);
		timerRegEncoderButton.restartTimer(timerRegEncoderButtonId);
	}
}
    1d3a:	df 91       	pop	r29
    1d3c:	cf 91       	pop	r28
    1d3e:	08 95       	ret

00001d40 <_ZN17DallasTemperature11validFamilyEPKh>:
	DeviceAddress deviceAddress;
	getAddress(deviceAddress, deviceIndex);

	return requestTemperaturesByAddress(deviceAddress);

}
    1d40:	fb 01       	movw	r30, r22
    1d42:	80 81       	ld	r24, Z
    1d44:	88 32       	cpi	r24, 0x28	; 40
    1d46:	61 f0       	breq	.+24     	; 0x1d60 <_ZN17DallasTemperature11validFamilyEPKh+0x20>
    1d48:	28 f4       	brcc	.+10     	; 0x1d54 <_ZN17DallasTemperature11validFamilyEPKh+0x14>
    1d4a:	80 31       	cpi	r24, 0x10	; 16
    1d4c:	49 f0       	breq	.+18     	; 0x1d60 <_ZN17DallasTemperature11validFamilyEPKh+0x20>
    1d4e:	82 32       	cpi	r24, 0x22	; 34
    1d50:	29 f4       	brne	.+10     	; 0x1d5c <_ZN17DallasTemperature11validFamilyEPKh+0x1c>
    1d52:	06 c0       	rjmp	.+12     	; 0x1d60 <_ZN17DallasTemperature11validFamilyEPKh+0x20>
    1d54:	8b 33       	cpi	r24, 0x3B	; 59
    1d56:	21 f0       	breq	.+8      	; 0x1d60 <_ZN17DallasTemperature11validFamilyEPKh+0x20>
    1d58:	82 34       	cpi	r24, 0x42	; 66
    1d5a:	11 f0       	breq	.+4      	; 0x1d60 <_ZN17DallasTemperature11validFamilyEPKh+0x20>
    1d5c:	80 e0       	ldi	r24, 0x00	; 0
    1d5e:	08 95       	ret
    1d60:	81 e0       	ldi	r24, 0x01	; 1
    1d62:	08 95       	ret

00001d64 <_ZN17DallasTemperature10setOneWireEP7OneWire>:
    1d64:	fc 01       	movw	r30, r24
    1d66:	77 83       	std	Z+7, r23	; 0x07
    1d68:	66 83       	std	Z+6, r22	; 0x06
    1d6a:	14 82       	std	Z+4, r1	; 0x04
    1d6c:	15 82       	std	Z+5, r1	; 0x05
    1d6e:	10 82       	st	Z, r1
    1d70:	89 e0       	ldi	r24, 0x09	; 9
    1d72:	81 83       	std	Z+1, r24	; 0x01
    1d74:	81 e0       	ldi	r24, 0x01	; 1
    1d76:	82 83       	std	Z+2, r24	; 0x02
    1d78:	83 83       	std	Z+3, r24	; 0x03
    1d7a:	08 95       	ret

00001d7c <_ZN17DallasTemperatureC1EP7OneWire>:
    1d7c:	cf 93       	push	r28
    1d7e:	df 93       	push	r29
    1d80:	ec 01       	movw	r28, r24
    1d82:	0e 94 b2 0e 	call	0x1d64	; 0x1d64 <_ZN17DallasTemperature10setOneWireEP7OneWire>
    1d86:	1b 8a       	std	Y+19, r1	; 0x13
    1d88:	1a 8a       	std	Y+18, r1	; 0x12
    1d8a:	df 91       	pop	r29
    1d8c:	cf 91       	pop	r28
    1d8e:	08 95       	ret

00001d90 <_ZN17DallasTemperature12validAddressEPKh>:
    1d90:	cf 93       	push	r28
    1d92:	df 93       	push	r29
    1d94:	eb 01       	movw	r28, r22
    1d96:	67 e0       	ldi	r22, 0x07	; 7
    1d98:	ce 01       	movw	r24, r28
    1d9a:	0e 94 0b 14 	call	0x2816	; 0x2816 <_ZN7OneWire4crc8EPKhh>
    1d9e:	91 e0       	ldi	r25, 0x01	; 1
    1da0:	2f 81       	ldd	r18, Y+7	; 0x07
    1da2:	28 13       	cpse	r18, r24
    1da4:	90 e0       	ldi	r25, 0x00	; 0
    1da6:	89 2f       	mov	r24, r25
    1da8:	df 91       	pop	r29
    1daa:	cf 91       	pop	r28
    1dac:	08 95       	ret

00001dae <_ZN17DallasTemperature10getAddressEPhh>:
    1dae:	ef 92       	push	r14
    1db0:	ff 92       	push	r15
    1db2:	0f 93       	push	r16
    1db4:	1f 93       	push	r17
    1db6:	cf 93       	push	r28
    1db8:	df 93       	push	r29
    1dba:	8c 01       	movw	r16, r24
    1dbc:	7b 01       	movw	r14, r22
    1dbe:	d4 2f       	mov	r29, r20
    1dc0:	fc 01       	movw	r30, r24
    1dc2:	86 81       	ldd	r24, Z+6	; 0x06
    1dc4:	97 81       	ldd	r25, Z+7	; 0x07
    1dc6:	0e 94 55 13 	call	0x26aa	; 0x26aa <_ZN7OneWire12reset_searchEv>
    1dca:	c0 e0       	ldi	r28, 0x00	; 0
    1dcc:	41 e0       	ldi	r20, 0x01	; 1
    1dce:	b7 01       	movw	r22, r14
    1dd0:	f8 01       	movw	r30, r16
    1dd2:	86 81       	ldd	r24, Z+6	; 0x06
    1dd4:	97 81       	ldd	r25, Z+7	; 0x07
    1dd6:	0e 94 84 13 	call	0x2708	; 0x2708 <_ZN7OneWire6searchEPhb>
    1dda:	88 23       	and	r24, r24
    1ddc:	59 f0       	breq	.+22     	; 0x1df4 <_ZN17DallasTemperature10getAddressEPhh+0x46>
    1dde:	dc 13       	cpse	r29, r28
    1de0:	06 c0       	rjmp	.+12     	; 0x1dee <_ZN17DallasTemperature10getAddressEPhh+0x40>
    1de2:	b7 01       	movw	r22, r14
    1de4:	c8 01       	movw	r24, r16
    1de6:	0e 94 c8 0e 	call	0x1d90	; 0x1d90 <_ZN17DallasTemperature12validAddressEPKh>
    1dea:	81 11       	cpse	r24, r1
    1dec:	04 c0       	rjmp	.+8      	; 0x1df6 <_ZN17DallasTemperature10getAddressEPhh+0x48>
    1dee:	cf 5f       	subi	r28, 0xFF	; 255
    1df0:	dc 17       	cp	r29, r28
    1df2:	60 f7       	brcc	.-40     	; 0x1dcc <_ZN17DallasTemperature10getAddressEPhh+0x1e>
    1df4:	80 e0       	ldi	r24, 0x00	; 0
    1df6:	df 91       	pop	r29
    1df8:	cf 91       	pop	r28
    1dfa:	1f 91       	pop	r17
    1dfc:	0f 91       	pop	r16
    1dfe:	ff 90       	pop	r15
    1e00:	ef 90       	pop	r14
    1e02:	08 95       	ret

00001e04 <_ZN17DallasTemperature14readScratchPadEPKhPh>:
    1e04:	ef 92       	push	r14
    1e06:	ff 92       	push	r15
    1e08:	0f 93       	push	r16
    1e0a:	1f 93       	push	r17
    1e0c:	cf 93       	push	r28
    1e0e:	df 93       	push	r29
    1e10:	8c 01       	movw	r16, r24
    1e12:	eb 01       	movw	r28, r22
    1e14:	7a 01       	movw	r14, r20
    1e16:	fc 01       	movw	r30, r24
    1e18:	86 81       	ldd	r24, Z+6	; 0x06
    1e1a:	97 81       	ldd	r25, Z+7	; 0x07
    1e1c:	0e 94 45 12 	call	0x248a	; 0x248a <_ZN7OneWire5resetEv>
    1e20:	88 23       	and	r24, r24
    1e22:	11 f1       	breq	.+68     	; 0x1e68 <_ZN17DallasTemperature14readScratchPadEPKhPh+0x64>
    1e24:	be 01       	movw	r22, r28
    1e26:	f8 01       	movw	r30, r16
    1e28:	86 81       	ldd	r24, Z+6	; 0x06
    1e2a:	97 81       	ldd	r25, Z+7	; 0x07
    1e2c:	0e 94 32 13 	call	0x2664	; 0x2664 <_ZN7OneWire6selectEPKh>
    1e30:	40 e0       	ldi	r20, 0x00	; 0
    1e32:	6e eb       	ldi	r22, 0xBE	; 190
    1e34:	f8 01       	movw	r30, r16
    1e36:	86 81       	ldd	r24, Z+6	; 0x06
    1e38:	97 81       	ldd	r25, Z+7	; 0x07
    1e3a:	0e 94 e2 12 	call	0x25c4	; 0x25c4 <_ZN7OneWire5writeEhh>
    1e3e:	e7 01       	movw	r28, r14
    1e40:	f9 e0       	ldi	r31, 0x09	; 9
    1e42:	ef 0e       	add	r14, r31
    1e44:	f1 1c       	adc	r15, r1
    1e46:	f8 01       	movw	r30, r16
    1e48:	86 81       	ldd	r24, Z+6	; 0x06
    1e4a:	97 81       	ldd	r25, Z+7	; 0x07
    1e4c:	0e 94 16 13 	call	0x262c	; 0x262c <_ZN7OneWire4readEv>
    1e50:	89 93       	st	Y+, r24
    1e52:	ce 15       	cp	r28, r14
    1e54:	df 05       	cpc	r29, r15
    1e56:	b9 f7       	brne	.-18     	; 0x1e46 <_ZN17DallasTemperature14readScratchPadEPKhPh+0x42>
    1e58:	f8 01       	movw	r30, r16
    1e5a:	86 81       	ldd	r24, Z+6	; 0x06
    1e5c:	97 81       	ldd	r25, Z+7	; 0x07
    1e5e:	0e 94 45 12 	call	0x248a	; 0x248a <_ZN7OneWire5resetEv>
    1e62:	91 e0       	ldi	r25, 0x01	; 1
    1e64:	81 30       	cpi	r24, 0x01	; 1
    1e66:	09 f0       	breq	.+2      	; 0x1e6a <_ZN17DallasTemperature14readScratchPadEPKhPh+0x66>
    1e68:	90 e0       	ldi	r25, 0x00	; 0
    1e6a:	89 2f       	mov	r24, r25
    1e6c:	df 91       	pop	r29
    1e6e:	cf 91       	pop	r28
    1e70:	1f 91       	pop	r17
    1e72:	0f 91       	pop	r16
    1e74:	ff 90       	pop	r15
    1e76:	ef 90       	pop	r14
    1e78:	08 95       	ret

00001e7a <_ZN17DallasTemperature11isConnectedEPKhPh>:
    1e7a:	cf 93       	push	r28
    1e7c:	df 93       	push	r29
    1e7e:	ea 01       	movw	r28, r20
    1e80:	0e 94 02 0f 	call	0x1e04	; 0x1e04 <_ZN17DallasTemperature14readScratchPadEPKhPh>
    1e84:	88 23       	and	r24, r24
    1e86:	39 f0       	breq	.+14     	; 0x1e96 <_ZN17DallasTemperature11isConnectedEPKhPh+0x1c>
    1e88:	68 e0       	ldi	r22, 0x08	; 8
    1e8a:	ce 01       	movw	r24, r28
    1e8c:	0e 94 0b 14 	call	0x2816	; 0x2816 <_ZN7OneWire4crc8EPKhh>
    1e90:	91 e0       	ldi	r25, 0x01	; 1
    1e92:	28 85       	ldd	r18, Y+8	; 0x08
    1e94:	28 13       	cpse	r18, r24
    1e96:	90 e0       	ldi	r25, 0x00	; 0
    1e98:	89 2f       	mov	r24, r25
    1e9a:	df 91       	pop	r29
    1e9c:	cf 91       	pop	r28
    1e9e:	08 95       	ret

00001ea0 <_ZN17DallasTemperature15readPowerSupplyEPKh>:
    1ea0:	0f 93       	push	r16
    1ea2:	1f 93       	push	r17
    1ea4:	cf 93       	push	r28
    1ea6:	df 93       	push	r29
    1ea8:	ec 01       	movw	r28, r24
    1eaa:	8b 01       	movw	r16, r22
    1eac:	8e 81       	ldd	r24, Y+6	; 0x06
    1eae:	9f 81       	ldd	r25, Y+7	; 0x07
    1eb0:	0e 94 45 12 	call	0x248a	; 0x248a <_ZN7OneWire5resetEv>
    1eb4:	b8 01       	movw	r22, r16
    1eb6:	8e 81       	ldd	r24, Y+6	; 0x06
    1eb8:	9f 81       	ldd	r25, Y+7	; 0x07
    1eba:	0e 94 32 13 	call	0x2664	; 0x2664 <_ZN7OneWire6selectEPKh>
    1ebe:	40 e0       	ldi	r20, 0x00	; 0
    1ec0:	64 eb       	ldi	r22, 0xB4	; 180
    1ec2:	8e 81       	ldd	r24, Y+6	; 0x06
    1ec4:	9f 81       	ldd	r25, Y+7	; 0x07
    1ec6:	0e 94 e2 12 	call	0x25c4	; 0x25c4 <_ZN7OneWire5writeEhh>
    1eca:	8e 81       	ldd	r24, Y+6	; 0x06
    1ecc:	9f 81       	ldd	r25, Y+7	; 0x07
    1ece:	0e 94 b7 12 	call	0x256e	; 0x256e <_ZN7OneWire8read_bitEv>
    1ed2:	18 2f       	mov	r17, r24
    1ed4:	8e 81       	ldd	r24, Y+6	; 0x06
    1ed6:	9f 81       	ldd	r25, Y+7	; 0x07
    1ed8:	0e 94 45 12 	call	0x248a	; 0x248a <_ZN7OneWire5resetEv>
    1edc:	81 e0       	ldi	r24, 0x01	; 1
    1ede:	11 11       	cpse	r17, r1
    1ee0:	80 e0       	ldi	r24, 0x00	; 0
    1ee2:	df 91       	pop	r29
    1ee4:	cf 91       	pop	r28
    1ee6:	1f 91       	pop	r17
    1ee8:	0f 91       	pop	r16
    1eea:	08 95       	ret

00001eec <_ZN17DallasTemperature13getResolutionEPKh>:
    1eec:	cf 93       	push	r28
    1eee:	df 93       	push	r29
    1ef0:	cd b7       	in	r28, 0x3d	; 61
    1ef2:	de b7       	in	r29, 0x3e	; 62
    1ef4:	29 97       	sbiw	r28, 0x09	; 9
    1ef6:	0f b6       	in	r0, 0x3f	; 63
    1ef8:	f8 94       	cli
    1efa:	de bf       	out	0x3e, r29	; 62
    1efc:	0f be       	out	0x3f, r0	; 63
    1efe:	cd bf       	out	0x3d, r28	; 61
    1f00:	fb 01       	movw	r30, r22
    1f02:	20 81       	ld	r18, Z
    1f04:	20 31       	cpi	r18, 0x10	; 16
    1f06:	d1 f0       	breq	.+52     	; 0x1f3c <_ZN17DallasTemperature13getResolutionEPKh+0x50>
    1f08:	ae 01       	movw	r20, r28
    1f0a:	4f 5f       	subi	r20, 0xFF	; 255
    1f0c:	5f 4f       	sbci	r21, 0xFF	; 255
    1f0e:	0e 94 3d 0f 	call	0x1e7a	; 0x1e7a <_ZN17DallasTemperature11isConnectedEPKhPh>
    1f12:	88 23       	and	r24, r24
    1f14:	89 f0       	breq	.+34     	; 0x1f38 <_ZN17DallasTemperature13getResolutionEPKh+0x4c>
    1f16:	8d 81       	ldd	r24, Y+5	; 0x05
    1f18:	8f 33       	cpi	r24, 0x3F	; 63
    1f1a:	61 f0       	breq	.+24     	; 0x1f34 <_ZN17DallasTemperature13getResolutionEPKh+0x48>
    1f1c:	20 f4       	brcc	.+8      	; 0x1f26 <_ZN17DallasTemperature13getResolutionEPKh+0x3a>
    1f1e:	8f 31       	cpi	r24, 0x1F	; 31
    1f20:	59 f4       	brne	.+22     	; 0x1f38 <_ZN17DallasTemperature13getResolutionEPKh+0x4c>
    1f22:	89 e0       	ldi	r24, 0x09	; 9
    1f24:	0c c0       	rjmp	.+24     	; 0x1f3e <_ZN17DallasTemperature13getResolutionEPKh+0x52>
    1f26:	8f 35       	cpi	r24, 0x5F	; 95
    1f28:	19 f0       	breq	.+6      	; 0x1f30 <_ZN17DallasTemperature13getResolutionEPKh+0x44>
    1f2a:	8f 37       	cpi	r24, 0x7F	; 127
    1f2c:	39 f0       	breq	.+14     	; 0x1f3c <_ZN17DallasTemperature13getResolutionEPKh+0x50>
    1f2e:	04 c0       	rjmp	.+8      	; 0x1f38 <_ZN17DallasTemperature13getResolutionEPKh+0x4c>
    1f30:	8b e0       	ldi	r24, 0x0B	; 11
    1f32:	05 c0       	rjmp	.+10     	; 0x1f3e <_ZN17DallasTemperature13getResolutionEPKh+0x52>
    1f34:	8a e0       	ldi	r24, 0x0A	; 10
    1f36:	03 c0       	rjmp	.+6      	; 0x1f3e <_ZN17DallasTemperature13getResolutionEPKh+0x52>
    1f38:	80 e0       	ldi	r24, 0x00	; 0
    1f3a:	01 c0       	rjmp	.+2      	; 0x1f3e <_ZN17DallasTemperature13getResolutionEPKh+0x52>
    1f3c:	8c e0       	ldi	r24, 0x0C	; 12
    1f3e:	29 96       	adiw	r28, 0x09	; 9
    1f40:	0f b6       	in	r0, 0x3f	; 63
    1f42:	f8 94       	cli
    1f44:	de bf       	out	0x3e, r29	; 62
    1f46:	0f be       	out	0x3f, r0	; 63
    1f48:	cd bf       	out	0x3d, r28	; 61
    1f4a:	df 91       	pop	r29
    1f4c:	cf 91       	pop	r28
    1f4e:	08 95       	ret

00001f50 <_ZN17DallasTemperature5beginEv>:
    1f50:	ff 92       	push	r15
    1f52:	0f 93       	push	r16
    1f54:	1f 93       	push	r17
    1f56:	cf 93       	push	r28
    1f58:	df 93       	push	r29
    1f5a:	cd b7       	in	r28, 0x3d	; 61
    1f5c:	de b7       	in	r29, 0x3e	; 62
    1f5e:	28 97       	sbiw	r28, 0x08	; 8
    1f60:	0f b6       	in	r0, 0x3f	; 63
    1f62:	f8 94       	cli
    1f64:	de bf       	out	0x3e, r29	; 62
    1f66:	0f be       	out	0x3f, r0	; 63
    1f68:	cd bf       	out	0x3d, r28	; 61
    1f6a:	8c 01       	movw	r16, r24
    1f6c:	fc 01       	movw	r30, r24
    1f6e:	86 81       	ldd	r24, Z+6	; 0x06
    1f70:	97 81       	ldd	r25, Z+7	; 0x07
    1f72:	0e 94 55 13 	call	0x26aa	; 0x26aa <_ZN7OneWire12reset_searchEv>
    1f76:	f8 01       	movw	r30, r16
    1f78:	14 82       	std	Z+4, r1	; 0x04
    1f7a:	15 82       	std	Z+5, r1	; 0x05
    1f7c:	41 e0       	ldi	r20, 0x01	; 1
    1f7e:	be 01       	movw	r22, r28
    1f80:	6f 5f       	subi	r22, 0xFF	; 255
    1f82:	7f 4f       	sbci	r23, 0xFF	; 255
    1f84:	f8 01       	movw	r30, r16
    1f86:	86 81       	ldd	r24, Z+6	; 0x06
    1f88:	97 81       	ldd	r25, Z+7	; 0x07
    1f8a:	0e 94 84 13 	call	0x2708	; 0x2708 <_ZN7OneWire6searchEPhb>
    1f8e:	88 23       	and	r24, r24
    1f90:	e9 f1       	breq	.+122    	; 0x200c <_ZN17DallasTemperature5beginEv+0xbc>
    1f92:	be 01       	movw	r22, r28
    1f94:	6f 5f       	subi	r22, 0xFF	; 255
    1f96:	7f 4f       	sbci	r23, 0xFF	; 255
    1f98:	c8 01       	movw	r24, r16
    1f9a:	0e 94 c8 0e 	call	0x1d90	; 0x1d90 <_ZN17DallasTemperature12validAddressEPKh>
    1f9e:	88 23       	and	r24, r24
    1fa0:	69 f3       	breq	.-38     	; 0x1f7c <_ZN17DallasTemperature5beginEv+0x2c>
    1fa2:	f8 01       	movw	r30, r16
    1fa4:	80 81       	ld	r24, Z
    1fa6:	81 11       	cpse	r24, r1
    1fa8:	08 c0       	rjmp	.+16     	; 0x1fba <_ZN17DallasTemperature5beginEv+0x6a>
    1faa:	be 01       	movw	r22, r28
    1fac:	6f 5f       	subi	r22, 0xFF	; 255
    1fae:	7f 4f       	sbci	r23, 0xFF	; 255
    1fb0:	c8 01       	movw	r24, r16
    1fb2:	0e 94 50 0f 	call	0x1ea0	; 0x1ea0 <_ZN17DallasTemperature15readPowerSupplyEPKh>
    1fb6:	81 11       	cpse	r24, r1
    1fb8:	25 c0       	rjmp	.+74     	; 0x2004 <_ZN17DallasTemperature5beginEv+0xb4>
    1fba:	f8 01       	movw	r30, r16
    1fbc:	f1 80       	ldd	r15, Z+1	; 0x01
    1fbe:	be 01       	movw	r22, r28
    1fc0:	6f 5f       	subi	r22, 0xFF	; 255
    1fc2:	7f 4f       	sbci	r23, 0xFF	; 255
    1fc4:	c8 01       	movw	r24, r16
    1fc6:	0e 94 76 0f 	call	0x1eec	; 0x1eec <_ZN17DallasTemperature13getResolutionEPKh>
    1fca:	8f 15       	cp	r24, r15
    1fcc:	18 f4       	brcc	.+6      	; 0x1fd4 <_ZN17DallasTemperature5beginEv+0x84>
    1fce:	f8 01       	movw	r30, r16
    1fd0:	81 81       	ldd	r24, Z+1	; 0x01
    1fd2:	06 c0       	rjmp	.+12     	; 0x1fe0 <_ZN17DallasTemperature5beginEv+0x90>
    1fd4:	be 01       	movw	r22, r28
    1fd6:	6f 5f       	subi	r22, 0xFF	; 255
    1fd8:	7f 4f       	sbci	r23, 0xFF	; 255
    1fda:	c8 01       	movw	r24, r16
    1fdc:	0e 94 76 0f 	call	0x1eec	; 0x1eec <_ZN17DallasTemperature13getResolutionEPKh>
    1fe0:	f8 01       	movw	r30, r16
    1fe2:	81 83       	std	Z+1, r24	; 0x01
    1fe4:	84 81       	ldd	r24, Z+4	; 0x04
    1fe6:	8f 5f       	subi	r24, 0xFF	; 255
    1fe8:	84 83       	std	Z+4, r24	; 0x04
    1fea:	be 01       	movw	r22, r28
    1fec:	6f 5f       	subi	r22, 0xFF	; 255
    1fee:	7f 4f       	sbci	r23, 0xFF	; 255
    1ff0:	c8 01       	movw	r24, r16
    1ff2:	0e 94 a0 0e 	call	0x1d40	; 0x1d40 <_ZN17DallasTemperature11validFamilyEPKh>
    1ff6:	88 23       	and	r24, r24
    1ff8:	09 f2       	breq	.-126    	; 0x1f7c <_ZN17DallasTemperature5beginEv+0x2c>
    1ffa:	f8 01       	movw	r30, r16
    1ffc:	85 81       	ldd	r24, Z+5	; 0x05
    1ffe:	8f 5f       	subi	r24, 0xFF	; 255
    2000:	85 83       	std	Z+5, r24	; 0x05
    2002:	bc cf       	rjmp	.-136    	; 0x1f7c <_ZN17DallasTemperature5beginEv+0x2c>
    2004:	81 e0       	ldi	r24, 0x01	; 1
    2006:	f8 01       	movw	r30, r16
    2008:	80 83       	st	Z, r24
    200a:	d7 cf       	rjmp	.-82     	; 0x1fba <_ZN17DallasTemperature5beginEv+0x6a>
    200c:	28 96       	adiw	r28, 0x08	; 8
    200e:	0f b6       	in	r0, 0x3f	; 63
    2010:	f8 94       	cli
    2012:	de bf       	out	0x3e, r29	; 62
    2014:	0f be       	out	0x3f, r0	; 63
    2016:	cd bf       	out	0x3d, r28	; 61
    2018:	df 91       	pop	r29
    201a:	cf 91       	pop	r28
    201c:	1f 91       	pop	r17
    201e:	0f 91       	pop	r16
    2020:	ff 90       	pop	r15
    2022:	08 95       	ret

00002024 <_ZN17DallasTemperature20setWaitForConversionEb>:
    2024:	fc 01       	movw	r30, r24
    2026:	62 83       	std	Z+2, r22	; 0x02
    2028:	08 95       	ret

0000202a <_ZN17DallasTemperature20isConversionCompleteEv>:
    202a:	fc 01       	movw	r30, r24
    202c:	86 81       	ldd	r24, Z+6	; 0x06
    202e:	97 81       	ldd	r25, Z+7	; 0x07
    2030:	0e 94 b7 12 	call	0x256e	; 0x256e <_ZN7OneWire8read_bitEv>
    2034:	91 e0       	ldi	r25, 0x01	; 1
    2036:	81 30       	cpi	r24, 0x01	; 1
    2038:	09 f0       	breq	.+2      	; 0x203c <_ZN17DallasTemperature20isConversionCompleteEv+0x12>
    203a:	90 e0       	ldi	r25, 0x00	; 0
    203c:	89 2f       	mov	r24, r25
    203e:	08 95       	ret

00002040 <_ZN17DallasTemperature27blockTillConversionCompleteEh>:
    2040:	8f 92       	push	r8
    2042:	9f 92       	push	r9
    2044:	af 92       	push	r10
    2046:	bf 92       	push	r11
    2048:	cf 92       	push	r12
    204a:	df 92       	push	r13
    204c:	ef 92       	push	r14
    204e:	ff 92       	push	r15
    2050:	0f 93       	push	r16
    2052:	1f 93       	push	r17
    2054:	cf 93       	push	r28
    2056:	df 93       	push	r29
    2058:	ec 01       	movw	r28, r24
    205a:	69 50       	subi	r22, 0x09	; 9
    205c:	63 30       	cpi	r22, 0x03	; 3
    205e:	48 f4       	brcc	.+18     	; 0x2072 <_ZN17DallasTemperature27blockTillConversionCompleteEh+0x32>
    2060:	e6 2f       	mov	r30, r22
    2062:	f0 e0       	ldi	r31, 0x00	; 0
    2064:	ee 0f       	add	r30, r30
    2066:	ff 1f       	adc	r31, r31
    2068:	e0 59       	subi	r30, 0x90	; 144
    206a:	fd 4f       	sbci	r31, 0xFD	; 253
    206c:	00 81       	ld	r16, Z
    206e:	11 81       	ldd	r17, Z+1	; 0x01
    2070:	02 c0       	rjmp	.+4      	; 0x2076 <_ZN17DallasTemperature27blockTillConversionCompleteEh+0x36>
    2072:	0e ee       	ldi	r16, 0xEE	; 238
    2074:	12 e0       	ldi	r17, 0x02	; 2
    2076:	8b 81       	ldd	r24, Y+3	; 0x03
    2078:	88 23       	and	r24, r24
    207a:	f1 f0       	breq	.+60     	; 0x20b8 <_ZN17DallasTemperature27blockTillConversionCompleteEh+0x78>
    207c:	88 81       	ld	r24, Y
    207e:	81 11       	cpse	r24, r1
    2080:	1b c0       	rjmp	.+54     	; 0x20b8 <_ZN17DallasTemperature27blockTillConversionCompleteEh+0x78>
    2082:	0e 94 87 1c 	call	0x390e	; 0x390e <millis>
    2086:	4b 01       	movw	r8, r22
    2088:	5c 01       	movw	r10, r24
    208a:	68 01       	movw	r12, r16
    208c:	11 0f       	add	r17, r17
    208e:	ee 08       	sbc	r14, r14
    2090:	ff 08       	sbc	r15, r15
    2092:	ce 01       	movw	r24, r28
    2094:	0e 94 15 10 	call	0x202a	; 0x202a <_ZN17DallasTemperature20isConversionCompleteEv>
    2098:	81 11       	cpse	r24, r1
    209a:	20 c0       	rjmp	.+64     	; 0x20dc <_ZN17DallasTemperature27blockTillConversionCompleteEh+0x9c>
    209c:	0e 94 87 1c 	call	0x390e	; 0x390e <millis>
    20a0:	dc 01       	movw	r26, r24
    20a2:	cb 01       	movw	r24, r22
    20a4:	8c 19       	sub	r24, r12
    20a6:	9d 09       	sbc	r25, r13
    20a8:	ae 09       	sbc	r26, r14
    20aa:	bf 09       	sbc	r27, r15
    20ac:	88 15       	cp	r24, r8
    20ae:	99 05       	cpc	r25, r9
    20b0:	aa 05       	cpc	r26, r10
    20b2:	bb 05       	cpc	r27, r11
    20b4:	70 f3       	brcs	.-36     	; 0x2092 <_ZN17DallasTemperature27blockTillConversionCompleteEh+0x52>
    20b6:	12 c0       	rjmp	.+36     	; 0x20dc <_ZN17DallasTemperature27blockTillConversionCompleteEh+0x9c>
    20b8:	b8 01       	movw	r22, r16
    20ba:	11 0f       	add	r17, r17
    20bc:	88 0b       	sbc	r24, r24
    20be:	99 0b       	sbc	r25, r25
    20c0:	df 91       	pop	r29
    20c2:	cf 91       	pop	r28
    20c4:	1f 91       	pop	r17
    20c6:	0f 91       	pop	r16
    20c8:	ff 90       	pop	r15
    20ca:	ef 90       	pop	r14
    20cc:	df 90       	pop	r13
    20ce:	cf 90       	pop	r12
    20d0:	bf 90       	pop	r11
    20d2:	af 90       	pop	r10
    20d4:	9f 90       	pop	r9
    20d6:	8f 90       	pop	r8
    20d8:	0c 94 b8 1c 	jmp	0x3970	; 0x3970 <delay>
    20dc:	df 91       	pop	r29
    20de:	cf 91       	pop	r28
    20e0:	1f 91       	pop	r17
    20e2:	0f 91       	pop	r16
    20e4:	ff 90       	pop	r15
    20e6:	ef 90       	pop	r14
    20e8:	df 90       	pop	r13
    20ea:	cf 90       	pop	r12
    20ec:	bf 90       	pop	r11
    20ee:	af 90       	pop	r10
    20f0:	9f 90       	pop	r9
    20f2:	8f 90       	pop	r8
    20f4:	08 95       	ret

000020f6 <_ZN17DallasTemperature19requestTemperaturesEv>:
    20f6:	cf 93       	push	r28
    20f8:	df 93       	push	r29
    20fa:	ec 01       	movw	r28, r24
    20fc:	8e 81       	ldd	r24, Y+6	; 0x06
    20fe:	9f 81       	ldd	r25, Y+7	; 0x07
    2100:	0e 94 45 12 	call	0x248a	; 0x248a <_ZN7OneWire5resetEv>
    2104:	8e 81       	ldd	r24, Y+6	; 0x06
    2106:	9f 81       	ldd	r25, Y+7	; 0x07
    2108:	0e 94 51 13 	call	0x26a2	; 0x26a2 <_ZN7OneWire4skipEv>
    210c:	48 81       	ld	r20, Y
    210e:	64 e4       	ldi	r22, 0x44	; 68
    2110:	8e 81       	ldd	r24, Y+6	; 0x06
    2112:	9f 81       	ldd	r25, Y+7	; 0x07
    2114:	0e 94 e2 12 	call	0x25c4	; 0x25c4 <_ZN7OneWire5writeEhh>
    2118:	8a 81       	ldd	r24, Y+2	; 0x02
    211a:	88 23       	and	r24, r24
    211c:	31 f0       	breq	.+12     	; 0x212a <_ZN17DallasTemperature19requestTemperaturesEv+0x34>
    211e:	69 81       	ldd	r22, Y+1	; 0x01
    2120:	ce 01       	movw	r24, r28
    2122:	df 91       	pop	r29
    2124:	cf 91       	pop	r28
    2126:	0c 94 20 10 	jmp	0x2040	; 0x2040 <_ZN17DallasTemperature27blockTillConversionCompleteEh>
    212a:	df 91       	pop	r29
    212c:	cf 91       	pop	r28
    212e:	08 95       	ret

00002130 <_ZN17DallasTemperature20calculateTemperatureEPKhPh>:

}

// reads scratchpad and returns fixed-point temperature, scaling factor 2^-7
int16_t DallasTemperature::calculateTemperature(const uint8_t* deviceAddress,
		uint8_t* scratchPad) {
    2130:	fa 01       	movw	r30, r20

	int16_t fpTemperature = (((int16_t) scratchPad[TEMP_MSB]) << 11)
			| (((int16_t) scratchPad[TEMP_LSB]) << 3);
    2132:	21 81       	ldd	r18, Z+1	; 0x01
    2134:	30 e0       	ldi	r19, 0x00	; 0
    2136:	c9 01       	movw	r24, r18
    2138:	98 2f       	mov	r25, r24
    213a:	88 27       	eor	r24, r24
    213c:	99 0f       	add	r25, r25
    213e:	99 0f       	add	r25, r25
    2140:	99 0f       	add	r25, r25
    2142:	20 81       	ld	r18, Z
    2144:	48 e0       	ldi	r20, 0x08	; 8
    2146:	24 9f       	mul	r18, r20
    2148:	90 01       	movw	r18, r0
    214a:	11 24       	eor	r1, r1
    214c:	28 2b       	or	r18, r24
    214e:	39 2b       	or	r19, r25
	 value for a DS18S20, and James Cameron added legacy DS1820 support.

	 See - http://myarduinotoy.blogspot.co.uk/2013/02/12bit-result-from-ds18s20.html
	 */

	if (deviceAddress[0] == DS18S20MODEL) {
    2150:	db 01       	movw	r26, r22
    2152:	8c 91       	ld	r24, X
    2154:	80 31       	cpi	r24, 0x10	; 16
    2156:	c1 f4       	brne	.+48     	; 0x2188 <_ZN17DallasTemperature20calculateTemperatureEPKhPh+0x58>
		fpTemperature = ((fpTemperature & 0xfff0) << 3) - 16
				+ (((scratchPad[COUNT_PER_C] - scratchPad[COUNT_REMAIN]) << 7)
    2158:	67 81       	ldd	r22, Z+7	; 0x07
    215a:	70 e0       	ldi	r23, 0x00	; 0
    215c:	86 81       	ldd	r24, Z+6	; 0x06
    215e:	ab 01       	movw	r20, r22
    2160:	48 1b       	sub	r20, r24
    2162:	51 09       	sbc	r21, r1
    2164:	ca 01       	movw	r24, r20
    2166:	96 95       	lsr	r25
    2168:	98 2f       	mov	r25, r24
    216a:	88 27       	eor	r24, r24
    216c:	97 95       	ror	r25
    216e:	87 95       	ror	r24
    2170:	0e 94 f2 1f 	call	0x3fe4	; 0x3fe4 <__divmodhi4>
    2174:	60 51       	subi	r22, 0x10	; 16
    2176:	71 09       	sbc	r23, r1
    2178:	20 7f       	andi	r18, 0xF0	; 240
    217a:	53 e0       	ldi	r21, 0x03	; 3
    217c:	22 0f       	add	r18, r18
    217e:	33 1f       	adc	r19, r19
    2180:	5a 95       	dec	r21
    2182:	e1 f7       	brne	.-8      	; 0x217c <_ZN17DallasTemperature20calculateTemperatureEPKhPh+0x4c>
    2184:	26 0f       	add	r18, r22
    2186:	37 1f       	adc	r19, r23
						/ scratchPad[COUNT_PER_C]);
	}

	return fpTemperature;
}
    2188:	c9 01       	movw	r24, r18
    218a:	08 95       	ret

0000218c <_ZN17DallasTemperature7getTempEPKh>:
// returns temperature in 1/128 degrees C or DEVICE_DISCONNECTED_RAW if the
// device's scratch pad cannot be read successfully.
// the numeric value of DEVICE_DISCONNECTED_RAW is defined in
// DallasTemperature.h. It is a large negative number outside the
// operating range of the device
int16_t DallasTemperature::getTemp(const uint8_t* deviceAddress) {
    218c:	ef 92       	push	r14
    218e:	ff 92       	push	r15
    2190:	0f 93       	push	r16
    2192:	1f 93       	push	r17
    2194:	cf 93       	push	r28
    2196:	df 93       	push	r29
    2198:	cd b7       	in	r28, 0x3d	; 61
    219a:	de b7       	in	r29, 0x3e	; 62
    219c:	29 97       	sbiw	r28, 0x09	; 9
    219e:	0f b6       	in	r0, 0x3f	; 63
    21a0:	f8 94       	cli
    21a2:	de bf       	out	0x3e, r29	; 62
    21a4:	0f be       	out	0x3f, r0	; 63
    21a6:	cd bf       	out	0x3d, r28	; 61
    21a8:	8c 01       	movw	r16, r24
    21aa:	7b 01       	movw	r14, r22

	ScratchPad scratchPad;
	if (isConnected(deviceAddress, scratchPad))
    21ac:	ae 01       	movw	r20, r28
    21ae:	4f 5f       	subi	r20, 0xFF	; 255
    21b0:	5f 4f       	sbci	r21, 0xFF	; 255
    21b2:	0e 94 3d 0f 	call	0x1e7a	; 0x1e7a <_ZN17DallasTemperature11isConnectedEPKhPh>
    21b6:	88 23       	and	r24, r24
    21b8:	41 f0       	breq	.+16     	; 0x21ca <_ZN17DallasTemperature7getTempEPKh+0x3e>
		return calculateTemperature(deviceAddress, scratchPad);
    21ba:	ae 01       	movw	r20, r28
    21bc:	4f 5f       	subi	r20, 0xFF	; 255
    21be:	5f 4f       	sbci	r21, 0xFF	; 255
    21c0:	b7 01       	movw	r22, r14
    21c2:	c8 01       	movw	r24, r16
    21c4:	0e 94 98 10 	call	0x2130	; 0x2130 <_ZN17DallasTemperature20calculateTemperatureEPKhPh>
    21c8:	02 c0       	rjmp	.+4      	; 0x21ce <_ZN17DallasTemperature7getTempEPKh+0x42>
	return DEVICE_DISCONNECTED_RAW;
    21ca:	80 e8       	ldi	r24, 0x80	; 128
    21cc:	94 ee       	ldi	r25, 0xE4	; 228

}
    21ce:	29 96       	adiw	r28, 0x09	; 9
    21d0:	0f b6       	in	r0, 0x3f	; 63
    21d2:	f8 94       	cli
    21d4:	de bf       	out	0x3e, r29	; 62
    21d6:	0f be       	out	0x3f, r0	; 63
    21d8:	cd bf       	out	0x3d, r28	; 61
    21da:	df 91       	pop	r29
    21dc:	cf 91       	pop	r28
    21de:	1f 91       	pop	r17
    21e0:	0f 91       	pop	r16
    21e2:	ff 90       	pop	r15
    21e4:	ef 90       	pop	r14
    21e6:	08 95       	ret

000021e8 <_ZN17DallasTemperature8getTempCEPKh>:
// device's scratch pad cannot be read successfully.
// the numeric value of DEVICE_DISCONNECTED_C is defined in
// DallasTemperature.h. It is a large negative number outside the
// operating range of the device
float DallasTemperature::getTempC(const uint8_t* deviceAddress) {
	return rawToCelsius(getTemp(deviceAddress));
    21e8:	0e 94 c6 10 	call	0x218c	; 0x218c <_ZN17DallasTemperature7getTempEPKh>
}

// convert from raw to Celsius
float DallasTemperature::rawToCelsius(int16_t raw) {

	if (raw <= DEVICE_DISCONNECTED_RAW)
    21ec:	81 38       	cpi	r24, 0x81	; 129
    21ee:	24 ee       	ldi	r18, 0xE4	; 228
    21f0:	92 07       	cpc	r25, r18
    21f2:	6c f0       	brlt	.+26     	; 0x220e <_ZN17DallasTemperature8getTempCEPKh+0x26>
		return DEVICE_DISCONNECTED_C;
	// C = RAW/128
	return (float) raw * 0.0078125;
    21f4:	bc 01       	movw	r22, r24
    21f6:	99 0f       	add	r25, r25
    21f8:	88 0b       	sbc	r24, r24
    21fa:	99 0b       	sbc	r25, r25
    21fc:	0e 94 aa 19 	call	0x3354	; 0x3354 <__floatsisf>
    2200:	20 e0       	ldi	r18, 0x00	; 0
    2202:	30 e0       	ldi	r19, 0x00	; 0
    2204:	40 e0       	ldi	r20, 0x00	; 0
    2206:	5c e3       	ldi	r21, 0x3C	; 60
    2208:	0e 94 5f 1a 	call	0x34be	; 0x34be <__mulsf3>
    220c:	08 95       	ret

// convert from raw to Celsius
float DallasTemperature::rawToCelsius(int16_t raw) {

	if (raw <= DEVICE_DISCONNECTED_RAW)
		return DEVICE_DISCONNECTED_C;
    220e:	60 e0       	ldi	r22, 0x00	; 0
    2210:	70 e0       	ldi	r23, 0x00	; 0
    2212:	8e ef       	ldi	r24, 0xFE	; 254
    2214:	92 ec       	ldi	r25, 0xC2	; 194
// the numeric value of DEVICE_DISCONNECTED_C is defined in
// DallasTemperature.h. It is a large negative number outside the
// operating range of the device
float DallasTemperature::getTempC(const uint8_t* deviceAddress) {
	return rawToCelsius(getTemp(deviceAddress));
}
    2216:	08 95       	ret

00002218 <_ZN17DallasTemperature15getTempCByIndexEh>:
	return requestTemperaturesByAddress(deviceAddress);

}

// Fetch temperature for device index
float DallasTemperature::getTempCByIndex(uint8_t deviceIndex) {
    2218:	0f 93       	push	r16
    221a:	1f 93       	push	r17
    221c:	cf 93       	push	r28
    221e:	df 93       	push	r29
    2220:	cd b7       	in	r28, 0x3d	; 61
    2222:	de b7       	in	r29, 0x3e	; 62
    2224:	28 97       	sbiw	r28, 0x08	; 8
    2226:	0f b6       	in	r0, 0x3f	; 63
    2228:	f8 94       	cli
    222a:	de bf       	out	0x3e, r29	; 62
    222c:	0f be       	out	0x3f, r0	; 63
    222e:	cd bf       	out	0x3d, r28	; 61
    2230:	8c 01       	movw	r16, r24
    2232:	46 2f       	mov	r20, r22

	DeviceAddress deviceAddress;
	if (!getAddress(deviceAddress, deviceIndex)) {
    2234:	be 01       	movw	r22, r28
    2236:	6f 5f       	subi	r22, 0xFF	; 255
    2238:	7f 4f       	sbci	r23, 0xFF	; 255
    223a:	0e 94 d7 0e 	call	0x1dae	; 0x1dae <_ZN17DallasTemperature10getAddressEPhh>
    223e:	88 23       	and	r24, r24
    2240:	39 f0       	breq	.+14     	; 0x2250 <_ZN17DallasTemperature15getTempCByIndexEh+0x38>
		return DEVICE_DISCONNECTED_C;
	}

	return getTempC((uint8_t*) deviceAddress);
    2242:	be 01       	movw	r22, r28
    2244:	6f 5f       	subi	r22, 0xFF	; 255
    2246:	7f 4f       	sbci	r23, 0xFF	; 255
    2248:	c8 01       	movw	r24, r16
    224a:	0e 94 f4 10 	call	0x21e8	; 0x21e8 <_ZN17DallasTemperature8getTempCEPKh>
    224e:	04 c0       	rjmp	.+8      	; 0x2258 <_ZN17DallasTemperature15getTempCByIndexEh+0x40>
// Fetch temperature for device index
float DallasTemperature::getTempCByIndex(uint8_t deviceIndex) {

	DeviceAddress deviceAddress;
	if (!getAddress(deviceAddress, deviceIndex)) {
		return DEVICE_DISCONNECTED_C;
    2250:	60 e0       	ldi	r22, 0x00	; 0
    2252:	70 e0       	ldi	r23, 0x00	; 0
    2254:	8e ef       	ldi	r24, 0xFE	; 254
    2256:	92 ec       	ldi	r25, 0xC2	; 194
	}

	return getTempC((uint8_t*) deviceAddress);

}
    2258:	28 96       	adiw	r28, 0x08	; 8
    225a:	0f b6       	in	r0, 0x3f	; 63
    225c:	f8 94       	cli
    225e:	de bf       	out	0x3e, r29	; 62
    2260:	0f be       	out	0x3f, r0	; 63
    2262:	cd bf       	out	0x3d, r28	; 61
    2264:	df 91       	pop	r29
    2266:	cf 91       	pop	r28
    2268:	1f 91       	pop	r17
    226a:	0f 91       	pop	r16
    226c:	08 95       	ret

0000226e <_ZN5Print17availableForWriteEv>:
	expanderWrite(_data & ~En);	// En low
	delayMicroseconds(50);		// commands need > 37us to settle
}

void LiquidCrystal_I2C::load_custom_character(uint8_t char_num, uint8_t *rows){
	createChar(char_num, rows);
    226e:	80 e0       	ldi	r24, 0x00	; 0
    2270:	90 e0       	ldi	r25, 0x00	; 0
    2272:	08 95       	ret

00002274 <_ZN5Print5flushEv>:
    2274:	08 95       	ret

00002276 <_ZN17LiquidCrystal_I2CC1Ehhhh>:
    2276:	0f 93       	push	r16
    2278:	fc 01       	movw	r30, r24
    227a:	13 82       	std	Z+3, r1	; 0x03
    227c:	12 82       	std	Z+2, r1	; 0x02
    227e:	8a e7       	ldi	r24, 0x7A	; 122
    2280:	92 e0       	ldi	r25, 0x02	; 2
    2282:	91 83       	std	Z+1, r25	; 0x01
    2284:	80 83       	st	Z, r24
    2286:	64 83       	std	Z+4, r22	; 0x04
    2288:	40 87       	std	Z+8, r20	; 0x08
    228a:	21 87       	std	Z+9, r18	; 0x09
    228c:	02 87       	std	Z+10, r16	; 0x0a
    228e:	88 e0       	ldi	r24, 0x08	; 8
    2290:	83 87       	std	Z+11, r24	; 0x0b
    2292:	0f 91       	pop	r16
    2294:	08 95       	ret

00002296 <_ZN17LiquidCrystal_I2C13expanderWriteEh>:
    2296:	1f 93       	push	r17
    2298:	cf 93       	push	r28
    229a:	df 93       	push	r29
    229c:	ec 01       	movw	r28, r24
    229e:	16 2f       	mov	r17, r22
    22a0:	6c 81       	ldd	r22, Y+4	; 0x04
    22a2:	8f ef       	ldi	r24, 0xFF	; 255
    22a4:	95 e0       	ldi	r25, 0x05	; 5
    22a6:	0e 94 6a 18 	call	0x30d4	; 0x30d4 <_ZN7TwoWire17beginTransmissionEh>
    22aa:	6b 85       	ldd	r22, Y+11	; 0x0b
    22ac:	61 2b       	or	r22, r17
    22ae:	8f ef       	ldi	r24, 0xFF	; 255
    22b0:	95 e0       	ldi	r25, 0x05	; 5
    22b2:	0e 94 21 18 	call	0x3042	; 0x3042 <_ZN7TwoWire5writeEh>
    22b6:	8f ef       	ldi	r24, 0xFF	; 255
    22b8:	95 e0       	ldi	r25, 0x05	; 5
    22ba:	df 91       	pop	r29
    22bc:	cf 91       	pop	r28
    22be:	1f 91       	pop	r17
    22c0:	0c 94 87 18 	jmp	0x310e	; 0x310e <_ZN7TwoWire15endTransmissionEv>

000022c4 <_ZN17LiquidCrystal_I2C11pulseEnableEh>:
    22c4:	0f 93       	push	r16
    22c6:	1f 93       	push	r17
    22c8:	cf 93       	push	r28
    22ca:	8c 01       	movw	r16, r24
    22cc:	c6 2f       	mov	r28, r22
    22ce:	64 60       	ori	r22, 0x04	; 4
    22d0:	0e 94 4b 11 	call	0x2296	; 0x2296 <_ZN17LiquidCrystal_I2C13expanderWriteEh>
    22d4:	81 e0       	ldi	r24, 0x01	; 1
    22d6:	90 e0       	ldi	r25, 0x00	; 0
    22d8:	0e 94 f4 1c 	call	0x39e8	; 0x39e8 <delayMicroseconds>
    22dc:	6c 2f       	mov	r22, r28
    22de:	6b 7f       	andi	r22, 0xFB	; 251
    22e0:	c8 01       	movw	r24, r16
    22e2:	0e 94 4b 11 	call	0x2296	; 0x2296 <_ZN17LiquidCrystal_I2C13expanderWriteEh>
    22e6:	82 e3       	ldi	r24, 0x32	; 50
    22e8:	90 e0       	ldi	r25, 0x00	; 0
    22ea:	cf 91       	pop	r28
    22ec:	1f 91       	pop	r17
    22ee:	0f 91       	pop	r16
    22f0:	0c 94 f4 1c 	jmp	0x39e8	; 0x39e8 <delayMicroseconds>

000022f4 <_ZN17LiquidCrystal_I2C10write4bitsEh>:
    22f4:	1f 93       	push	r17
    22f6:	cf 93       	push	r28
    22f8:	df 93       	push	r29
    22fa:	ec 01       	movw	r28, r24
    22fc:	16 2f       	mov	r17, r22
    22fe:	0e 94 4b 11 	call	0x2296	; 0x2296 <_ZN17LiquidCrystal_I2C13expanderWriteEh>
    2302:	61 2f       	mov	r22, r17
    2304:	ce 01       	movw	r24, r28
    2306:	df 91       	pop	r29
    2308:	cf 91       	pop	r28
    230a:	1f 91       	pop	r17
    230c:	0c 94 62 11 	jmp	0x22c4	; 0x22c4 <_ZN17LiquidCrystal_I2C11pulseEnableEh>

00002310 <_ZN17LiquidCrystal_I2C4sendEhh>:
    2310:	0f 93       	push	r16
    2312:	1f 93       	push	r17
    2314:	cf 93       	push	r28
    2316:	df 93       	push	r29
    2318:	8c 01       	movw	r16, r24
    231a:	c6 2f       	mov	r28, r22
    231c:	d4 2f       	mov	r29, r20
    231e:	60 7f       	andi	r22, 0xF0	; 240
    2320:	64 2b       	or	r22, r20
    2322:	0e 94 7a 11 	call	0x22f4	; 0x22f4 <_ZN17LiquidCrystal_I2C10write4bitsEh>
    2326:	80 e1       	ldi	r24, 0x10	; 16
    2328:	c8 9f       	mul	r28, r24
    232a:	b0 01       	movw	r22, r0
    232c:	11 24       	eor	r1, r1
    232e:	6d 2b       	or	r22, r29
    2330:	c8 01       	movw	r24, r16
    2332:	df 91       	pop	r29
    2334:	cf 91       	pop	r28
    2336:	1f 91       	pop	r17
    2338:	0f 91       	pop	r16
    233a:	0c 94 7a 11 	jmp	0x22f4	; 0x22f4 <_ZN17LiquidCrystal_I2C10write4bitsEh>

0000233e <_ZN17LiquidCrystal_I2C7commandEh>:
    233e:	40 e0       	ldi	r20, 0x00	; 0
    2340:	0c 94 88 11 	jmp	0x2310	; 0x2310 <_ZN17LiquidCrystal_I2C4sendEhh>

00002344 <_ZN17LiquidCrystal_I2C5clearEv>:
    2344:	61 e0       	ldi	r22, 0x01	; 1
    2346:	0e 94 9f 11 	call	0x233e	; 0x233e <_ZN17LiquidCrystal_I2C7commandEh>
    234a:	80 ed       	ldi	r24, 0xD0	; 208
    234c:	97 e0       	ldi	r25, 0x07	; 7
    234e:	0c 94 f4 1c 	jmp	0x39e8	; 0x39e8 <delayMicroseconds>

00002352 <_ZN17LiquidCrystal_I2C4homeEv>:
    2352:	62 e0       	ldi	r22, 0x02	; 2
    2354:	0e 94 9f 11 	call	0x233e	; 0x233e <_ZN17LiquidCrystal_I2C7commandEh>
    2358:	80 ed       	ldi	r24, 0xD0	; 208
    235a:	97 e0       	ldi	r25, 0x07	; 7
    235c:	0c 94 f4 1c 	jmp	0x39e8	; 0x39e8 <delayMicroseconds>

00002360 <_ZN17LiquidCrystal_I2C9setCursorEhh>:
    2360:	cf 93       	push	r28
    2362:	df 93       	push	r29
    2364:	cd b7       	in	r28, 0x3d	; 61
    2366:	de b7       	in	r29, 0x3e	; 62
    2368:	28 97       	sbiw	r28, 0x08	; 8
    236a:	0f b6       	in	r0, 0x3f	; 63
    236c:	f8 94       	cli
    236e:	de bf       	out	0x3e, r29	; 62
    2370:	0f be       	out	0x3f, r0	; 63
    2372:	cd bf       	out	0x3d, r28	; 61
    2374:	9c 01       	movw	r18, r24
    2376:	88 e0       	ldi	r24, 0x08	; 8
    2378:	ef e0       	ldi	r30, 0x0F	; 15
    237a:	f1 e0       	ldi	r31, 0x01	; 1
    237c:	de 01       	movw	r26, r28
    237e:	11 96       	adiw	r26, 0x01	; 1
    2380:	01 90       	ld	r0, Z+
    2382:	0d 92       	st	X+, r0
    2384:	8a 95       	dec	r24
    2386:	e1 f7       	brne	.-8      	; 0x2380 <_ZN17LiquidCrystal_I2C9setCursorEhh+0x20>
    2388:	f9 01       	movw	r30, r18
    238a:	81 85       	ldd	r24, Z+9	; 0x09
    238c:	84 17       	cp	r24, r20
    238e:	10 f4       	brcc	.+4      	; 0x2394 <_ZN17LiquidCrystal_I2C9setCursorEhh+0x34>
    2390:	4f ef       	ldi	r20, 0xFF	; 255
    2392:	48 0f       	add	r20, r24
    2394:	fe 01       	movw	r30, r28
    2396:	31 96       	adiw	r30, 0x01	; 1
    2398:	e4 0f       	add	r30, r20
    239a:	f1 1d       	adc	r31, r1
    239c:	e4 0f       	add	r30, r20
    239e:	f1 1d       	adc	r31, r1
    23a0:	90 81       	ld	r25, Z
    23a2:	69 0f       	add	r22, r25
    23a4:	60 68       	ori	r22, 0x80	; 128
    23a6:	c9 01       	movw	r24, r18
    23a8:	28 96       	adiw	r28, 0x08	; 8
    23aa:	0f b6       	in	r0, 0x3f	; 63
    23ac:	f8 94       	cli
    23ae:	de bf       	out	0x3e, r29	; 62
    23b0:	0f be       	out	0x3f, r0	; 63
    23b2:	cd bf       	out	0x3d, r28	; 61
    23b4:	df 91       	pop	r29
    23b6:	cf 91       	pop	r28
    23b8:	0c 94 9f 11 	jmp	0x233e	; 0x233e <_ZN17LiquidCrystal_I2C7commandEh>

000023bc <_ZN17LiquidCrystal_I2C7displayEv>:
    23bc:	fc 01       	movw	r30, r24
    23be:	66 81       	ldd	r22, Z+6	; 0x06
    23c0:	26 2f       	mov	r18, r22
    23c2:	24 60       	ori	r18, 0x04	; 4
    23c4:	26 83       	std	Z+6, r18	; 0x06
    23c6:	6c 60       	ori	r22, 0x0C	; 12
    23c8:	0c 94 9f 11 	jmp	0x233e	; 0x233e <_ZN17LiquidCrystal_I2C7commandEh>

000023cc <_ZN17LiquidCrystal_I2C5writeEh>:
inline void LiquidCrystal_I2C::command(uint8_t value) {
	send(value, 0);
}

inline size_t LiquidCrystal_I2C::write(uint8_t value) {
	send(value, Rs);
    23cc:	41 e0       	ldi	r20, 0x01	; 1
    23ce:	0e 94 88 11 	call	0x2310	; 0x2310 <_ZN17LiquidCrystal_I2C4sendEhh>
	return 1;
}
    23d2:	81 e0       	ldi	r24, 0x01	; 1
    23d4:	90 e0       	ldi	r25, 0x00	; 0
    23d6:	08 95       	ret

000023d8 <_ZN17LiquidCrystal_I2C5beginEv>:
	_rows = lcd_rows;
	_charsize = charsize;
	_backlightval = LCD_BACKLIGHT;
}

void LiquidCrystal_I2C::begin() {
    23d8:	cf 93       	push	r28
    23da:	df 93       	push	r29
    23dc:	ec 01       	movw	r28, r24
	Wire.begin();
    23de:	8f ef       	ldi	r24, 0xFF	; 255
    23e0:	95 e0       	ldi	r25, 0x05	; 5
    23e2:	0e 94 60 18 	call	0x30c0	; 0x30c0 <_ZN7TwoWire5beginEv>
	_displayfunction = LCD_4BITMODE | LCD_1LINE | LCD_5x8DOTS;
    23e6:	1d 82       	std	Y+5, r1	; 0x05

	if (_rows > 1) {
    23e8:	89 85       	ldd	r24, Y+9	; 0x09
    23ea:	82 30       	cpi	r24, 0x02	; 2
    23ec:	10 f0       	brcs	.+4      	; 0x23f2 <_ZN17LiquidCrystal_I2C5beginEv+0x1a>
		_displayfunction |= LCD_2LINE;
    23ee:	98 e0       	ldi	r25, 0x08	; 8
    23f0:	9d 83       	std	Y+5, r25	; 0x05
	}

	// for some 1 line displays you can select a 10 pixel high font
	if ((_charsize != 0) && (_rows == 1)) {
    23f2:	9a 85       	ldd	r25, Y+10	; 0x0a
    23f4:	99 23       	and	r25, r25
    23f6:	29 f0       	breq	.+10     	; 0x2402 <_ZN17LiquidCrystal_I2C5beginEv+0x2a>
    23f8:	81 30       	cpi	r24, 0x01	; 1
    23fa:	19 f4       	brne	.+6      	; 0x2402 <_ZN17LiquidCrystal_I2C5beginEv+0x2a>
		_displayfunction |= LCD_5x10DOTS;
    23fc:	8d 81       	ldd	r24, Y+5	; 0x05
    23fe:	84 60       	ori	r24, 0x04	; 4
    2400:	8d 83       	std	Y+5, r24	; 0x05
	}

	// SEE PAGE 45/46 FOR INITIALIZATION SPECIFICATION!
	// according to datasheet, we need at least 40ms after power rises above 2.7V
	// before sending commands. Arduino can turn on way befer 4.5V so we'll wait 50
	delay(50);
    2402:	62 e3       	ldi	r22, 0x32	; 50
    2404:	70 e0       	ldi	r23, 0x00	; 0
    2406:	80 e0       	ldi	r24, 0x00	; 0
    2408:	90 e0       	ldi	r25, 0x00	; 0
    240a:	0e 94 b8 1c 	call	0x3970	; 0x3970 <delay>

	// Now we pull both RS and R/W low to begin commands
	expanderWrite(_backlightval);	// reset expanderand turn backlight off (Bit 8 =1)
    240e:	6b 85       	ldd	r22, Y+11	; 0x0b
    2410:	ce 01       	movw	r24, r28
    2412:	0e 94 4b 11 	call	0x2296	; 0x2296 <_ZN17LiquidCrystal_I2C13expanderWriteEh>
	delay(1000);
    2416:	68 ee       	ldi	r22, 0xE8	; 232
    2418:	73 e0       	ldi	r23, 0x03	; 3
    241a:	80 e0       	ldi	r24, 0x00	; 0
    241c:	90 e0       	ldi	r25, 0x00	; 0
    241e:	0e 94 b8 1c 	call	0x3970	; 0x3970 <delay>
	//put the LCD into 4 bit mode
	// this is according to the hitachi HD44780 datasheet
	// figure 24, pg 46

	// we start in 8bit mode, try to set 4 bit mode
	write4bits(0x03 << 4);
    2422:	60 e3       	ldi	r22, 0x30	; 48
    2424:	ce 01       	movw	r24, r28
    2426:	0e 94 7a 11 	call	0x22f4	; 0x22f4 <_ZN17LiquidCrystal_I2C10write4bitsEh>
	delayMicroseconds(4500); // wait min 4.1ms
    242a:	84 e9       	ldi	r24, 0x94	; 148
    242c:	91 e1       	ldi	r25, 0x11	; 17
    242e:	0e 94 f4 1c 	call	0x39e8	; 0x39e8 <delayMicroseconds>

	// second try
	write4bits(0x03 << 4);
    2432:	60 e3       	ldi	r22, 0x30	; 48
    2434:	ce 01       	movw	r24, r28
    2436:	0e 94 7a 11 	call	0x22f4	; 0x22f4 <_ZN17LiquidCrystal_I2C10write4bitsEh>
	delayMicroseconds(4500); // wait min 4.1ms
    243a:	84 e9       	ldi	r24, 0x94	; 148
    243c:	91 e1       	ldi	r25, 0x11	; 17
    243e:	0e 94 f4 1c 	call	0x39e8	; 0x39e8 <delayMicroseconds>

	// third go!
	write4bits(0x03 << 4);
    2442:	60 e3       	ldi	r22, 0x30	; 48
    2444:	ce 01       	movw	r24, r28
    2446:	0e 94 7a 11 	call	0x22f4	; 0x22f4 <_ZN17LiquidCrystal_I2C10write4bitsEh>
	delayMicroseconds(150);
    244a:	86 e9       	ldi	r24, 0x96	; 150
    244c:	90 e0       	ldi	r25, 0x00	; 0
    244e:	0e 94 f4 1c 	call	0x39e8	; 0x39e8 <delayMicroseconds>

	// finally, set to 4-bit interface
	write4bits(0x02 << 4);
    2452:	60 e2       	ldi	r22, 0x20	; 32
    2454:	ce 01       	movw	r24, r28
    2456:	0e 94 7a 11 	call	0x22f4	; 0x22f4 <_ZN17LiquidCrystal_I2C10write4bitsEh>

	// set # lines, font size, etc.
	command(LCD_FUNCTIONSET | _displayfunction);
    245a:	6d 81       	ldd	r22, Y+5	; 0x05
    245c:	60 62       	ori	r22, 0x20	; 32
    245e:	ce 01       	movw	r24, r28
    2460:	0e 94 9f 11 	call	0x233e	; 0x233e <_ZN17LiquidCrystal_I2C7commandEh>

	// turn the display on with no cursor or blinking default
	_displaycontrol = LCD_DISPLAYON | LCD_CURSOROFF | LCD_BLINKOFF;
    2464:	84 e0       	ldi	r24, 0x04	; 4
    2466:	8e 83       	std	Y+6, r24	; 0x06
	display();
    2468:	ce 01       	movw	r24, r28
    246a:	0e 94 de 11 	call	0x23bc	; 0x23bc <_ZN17LiquidCrystal_I2C7displayEv>

	// clear it off
	clear();
    246e:	ce 01       	movw	r24, r28
    2470:	0e 94 a2 11 	call	0x2344	; 0x2344 <_ZN17LiquidCrystal_I2C5clearEv>

	// Initialize to default text direction (for roman languages)
	_displaymode = LCD_ENTRYLEFT | LCD_ENTRYSHIFTDECREMENT;
    2474:	82 e0       	ldi	r24, 0x02	; 2
    2476:	8f 83       	std	Y+7, r24	; 0x07

	// set the entry mode
	command(LCD_ENTRYMODESET | _displaymode);
    2478:	66 e0       	ldi	r22, 0x06	; 6
    247a:	ce 01       	movw	r24, r28
    247c:	0e 94 9f 11 	call	0x233e	; 0x233e <_ZN17LiquidCrystal_I2C7commandEh>

	home();
    2480:	ce 01       	movw	r24, r28
}
    2482:	df 91       	pop	r29
    2484:	cf 91       	pop	r28
	_displaymode = LCD_ENTRYLEFT | LCD_ENTRYSHIFTDECREMENT;

	// set the entry mode
	command(LCD_ENTRYMODESET | _displaymode);

	home();
    2486:	0c 94 a9 11 	jmp	0x2352	; 0x2352 <_ZN17LiquidCrystal_I2C4homeEv>

0000248a <_ZN7OneWire5resetEv>:
   ROM_NO[0] = family_code;
   for (uint8_t i = 1; i < 8; i++)
      ROM_NO[i] = 0;
   LastDiscrepancy = 64;
   LastFamilyDiscrepancy = 0;
   LastDeviceFlag = false;
    248a:	ff 92       	push	r15
    248c:	0f 93       	push	r16
    248e:	1f 93       	push	r17
    2490:	cf 93       	push	r28
    2492:	df 93       	push	r29
    2494:	fc 01       	movw	r30, r24
    2496:	f0 80       	ld	r15, Z
    2498:	c1 81       	ldd	r28, Z+1	; 0x01
    249a:	d2 81       	ldd	r29, Z+2	; 0x02
    249c:	f8 94       	cli
    249e:	89 81       	ldd	r24, Y+1	; 0x01
    24a0:	0f 2d       	mov	r16, r15
    24a2:	00 95       	com	r16
    24a4:	80 23       	and	r24, r16
    24a6:	89 83       	std	Y+1, r24	; 0x01
    24a8:	78 94       	sei
    24aa:	1d e7       	ldi	r17, 0x7D	; 125
    24ac:	11 50       	subi	r17, 0x01	; 1
    24ae:	29 f1       	breq	.+74     	; 0x24fa <_ZN7OneWire5resetEv+0x70>
    24b0:	82 e0       	ldi	r24, 0x02	; 2
    24b2:	90 e0       	ldi	r25, 0x00	; 0
    24b4:	0e 94 f4 1c 	call	0x39e8	; 0x39e8 <delayMicroseconds>
    24b8:	88 81       	ld	r24, Y
    24ba:	8f 21       	and	r24, r15
    24bc:	b9 f3       	breq	.-18     	; 0x24ac <_ZN7OneWire5resetEv+0x22>
    24be:	f8 94       	cli
    24c0:	8a 81       	ldd	r24, Y+2	; 0x02
    24c2:	80 23       	and	r24, r16
    24c4:	8a 83       	std	Y+2, r24	; 0x02
    24c6:	89 81       	ldd	r24, Y+1	; 0x01
    24c8:	8f 29       	or	r24, r15
    24ca:	89 83       	std	Y+1, r24	; 0x01
    24cc:	78 94       	sei
    24ce:	80 ee       	ldi	r24, 0xE0	; 224
    24d0:	91 e0       	ldi	r25, 0x01	; 1
    24d2:	0e 94 f4 1c 	call	0x39e8	; 0x39e8 <delayMicroseconds>
    24d6:	f8 94       	cli
    24d8:	89 81       	ldd	r24, Y+1	; 0x01
    24da:	08 23       	and	r16, r24
    24dc:	09 83       	std	Y+1, r16	; 0x01
    24de:	86 e4       	ldi	r24, 0x46	; 70
    24e0:	90 e0       	ldi	r25, 0x00	; 0
    24e2:	0e 94 f4 1c 	call	0x39e8	; 0x39e8 <delayMicroseconds>
    24e6:	88 81       	ld	r24, Y
    24e8:	f8 22       	and	r15, r24
    24ea:	11 e0       	ldi	r17, 0x01	; 1
    24ec:	09 f0       	breq	.+2      	; 0x24f0 <_ZN7OneWire5resetEv+0x66>
    24ee:	10 e0       	ldi	r17, 0x00	; 0
    24f0:	78 94       	sei
    24f2:	8a e9       	ldi	r24, 0x9A	; 154
    24f4:	91 e0       	ldi	r25, 0x01	; 1
    24f6:	0e 94 f4 1c 	call	0x39e8	; 0x39e8 <delayMicroseconds>
    24fa:	81 2f       	mov	r24, r17
    24fc:	df 91       	pop	r29
    24fe:	cf 91       	pop	r28
    2500:	1f 91       	pop	r17
    2502:	0f 91       	pop	r16
    2504:	ff 90       	pop	r15
    2506:	08 95       	ret

00002508 <_ZN7OneWire9write_bitEh>:
    2508:	1f 93       	push	r17
    250a:	cf 93       	push	r28
    250c:	df 93       	push	r29
    250e:	fc 01       	movw	r30, r24
    2510:	10 81       	ld	r17, Z
    2512:	c1 81       	ldd	r28, Z+1	; 0x01
    2514:	d2 81       	ldd	r29, Z+2	; 0x02
    2516:	81 2f       	mov	r24, r17
    2518:	80 95       	com	r24
    251a:	60 ff       	sbrs	r22, 0
    251c:	12 c0       	rjmp	.+36     	; 0x2542 <_ZN7OneWire9write_bitEh+0x3a>
    251e:	f8 94       	cli
    2520:	9a 81       	ldd	r25, Y+2	; 0x02
    2522:	89 23       	and	r24, r25
    2524:	8a 83       	std	Y+2, r24	; 0x02
    2526:	89 81       	ldd	r24, Y+1	; 0x01
    2528:	81 2b       	or	r24, r17
    252a:	89 83       	std	Y+1, r24	; 0x01
    252c:	8a e0       	ldi	r24, 0x0A	; 10
    252e:	90 e0       	ldi	r25, 0x00	; 0
    2530:	0e 94 f4 1c 	call	0x39e8	; 0x39e8 <delayMicroseconds>
    2534:	8a 81       	ldd	r24, Y+2	; 0x02
    2536:	18 2b       	or	r17, r24
    2538:	1a 83       	std	Y+2, r17	; 0x02
    253a:	78 94       	sei
    253c:	87 e3       	ldi	r24, 0x37	; 55
    253e:	90 e0       	ldi	r25, 0x00	; 0
    2540:	11 c0       	rjmp	.+34     	; 0x2564 <_ZN7OneWire9write_bitEh+0x5c>
    2542:	f8 94       	cli
    2544:	9a 81       	ldd	r25, Y+2	; 0x02
    2546:	89 23       	and	r24, r25
    2548:	8a 83       	std	Y+2, r24	; 0x02
    254a:	89 81       	ldd	r24, Y+1	; 0x01
    254c:	81 2b       	or	r24, r17
    254e:	89 83       	std	Y+1, r24	; 0x01
    2550:	81 e4       	ldi	r24, 0x41	; 65
    2552:	90 e0       	ldi	r25, 0x00	; 0
    2554:	0e 94 f4 1c 	call	0x39e8	; 0x39e8 <delayMicroseconds>
    2558:	8a 81       	ldd	r24, Y+2	; 0x02
    255a:	18 2b       	or	r17, r24
    255c:	1a 83       	std	Y+2, r17	; 0x02
    255e:	78 94       	sei
    2560:	85 e0       	ldi	r24, 0x05	; 5
    2562:	90 e0       	ldi	r25, 0x00	; 0
    2564:	df 91       	pop	r29
    2566:	cf 91       	pop	r28
    2568:	1f 91       	pop	r17
    256a:	0c 94 f4 1c 	jmp	0x39e8	; 0x39e8 <delayMicroseconds>

0000256e <_ZN7OneWire8read_bitEv>:
    256e:	0f 93       	push	r16
    2570:	1f 93       	push	r17
    2572:	cf 93       	push	r28
    2574:	df 93       	push	r29
    2576:	fc 01       	movw	r30, r24
    2578:	00 81       	ld	r16, Z
    257a:	c1 81       	ldd	r28, Z+1	; 0x01
    257c:	d2 81       	ldd	r29, Z+2	; 0x02
    257e:	f8 94       	cli
    2580:	89 81       	ldd	r24, Y+1	; 0x01
    2582:	80 2b       	or	r24, r16
    2584:	89 83       	std	Y+1, r24	; 0x01
    2586:	8a 81       	ldd	r24, Y+2	; 0x02
    2588:	10 2f       	mov	r17, r16
    258a:	10 95       	com	r17
    258c:	81 23       	and	r24, r17
    258e:	8a 83       	std	Y+2, r24	; 0x02
    2590:	83 e0       	ldi	r24, 0x03	; 3
    2592:	90 e0       	ldi	r25, 0x00	; 0
    2594:	0e 94 f4 1c 	call	0x39e8	; 0x39e8 <delayMicroseconds>
    2598:	89 81       	ldd	r24, Y+1	; 0x01
    259a:	18 23       	and	r17, r24
    259c:	19 83       	std	Y+1, r17	; 0x01
    259e:	8a e0       	ldi	r24, 0x0A	; 10
    25a0:	90 e0       	ldi	r25, 0x00	; 0
    25a2:	0e 94 f4 1c 	call	0x39e8	; 0x39e8 <delayMicroseconds>
    25a6:	c8 81       	ld	r28, Y
    25a8:	78 94       	sei
    25aa:	85 e3       	ldi	r24, 0x35	; 53
    25ac:	90 e0       	ldi	r25, 0x00	; 0
    25ae:	0e 94 f4 1c 	call	0x39e8	; 0x39e8 <delayMicroseconds>
    25b2:	c0 23       	and	r28, r16
    25b4:	81 e0       	ldi	r24, 0x01	; 1
    25b6:	09 f4       	brne	.+2      	; 0x25ba <_ZN7OneWire8read_bitEv+0x4c>
    25b8:	80 e0       	ldi	r24, 0x00	; 0
    25ba:	df 91       	pop	r29
    25bc:	cf 91       	pop	r28
    25be:	1f 91       	pop	r17
    25c0:	0f 91       	pop	r16
    25c2:	08 95       	ret

000025c4 <_ZN7OneWire5writeEhh>:
    25c4:	df 92       	push	r13
    25c6:	ef 92       	push	r14
    25c8:	ff 92       	push	r15
    25ca:	0f 93       	push	r16
    25cc:	1f 93       	push	r17
    25ce:	cf 93       	push	r28
    25d0:	df 93       	push	r29
    25d2:	ec 01       	movw	r28, r24
    25d4:	d6 2e       	mov	r13, r22
    25d6:	e4 2e       	mov	r14, r20
    25d8:	08 e0       	ldi	r16, 0x08	; 8
    25da:	10 e0       	ldi	r17, 0x00	; 0
    25dc:	ff 24       	eor	r15, r15
    25de:	f3 94       	inc	r15
    25e0:	61 e0       	ldi	r22, 0x01	; 1
    25e2:	8d 2d       	mov	r24, r13
    25e4:	8f 21       	and	r24, r15
    25e6:	09 f4       	brne	.+2      	; 0x25ea <_ZN7OneWire5writeEhh+0x26>
    25e8:	60 e0       	ldi	r22, 0x00	; 0
    25ea:	ce 01       	movw	r24, r28
    25ec:	0e 94 84 12 	call	0x2508	; 0x2508 <_ZN7OneWire9write_bitEh>
    25f0:	ff 0c       	add	r15, r15
    25f2:	01 50       	subi	r16, 0x01	; 1
    25f4:	11 09       	sbc	r17, r1
    25f6:	a1 f7       	brne	.-24     	; 0x25e0 <_ZN7OneWire5writeEhh+0x1c>
    25f8:	e1 10       	cpse	r14, r1
    25fa:	10 c0       	rjmp	.+32     	; 0x261c <_ZN7OneWire5writeEhh+0x58>
    25fc:	f8 94       	cli
    25fe:	e9 81       	ldd	r30, Y+1	; 0x01
    2600:	fa 81       	ldd	r31, Y+2	; 0x02
    2602:	91 81       	ldd	r25, Z+1	; 0x01
    2604:	88 81       	ld	r24, Y
    2606:	80 95       	com	r24
    2608:	89 23       	and	r24, r25
    260a:	81 83       	std	Z+1, r24	; 0x01
    260c:	e9 81       	ldd	r30, Y+1	; 0x01
    260e:	fa 81       	ldd	r31, Y+2	; 0x02
    2610:	92 81       	ldd	r25, Z+2	; 0x02
    2612:	88 81       	ld	r24, Y
    2614:	80 95       	com	r24
    2616:	89 23       	and	r24, r25
    2618:	82 83       	std	Z+2, r24	; 0x02
    261a:	78 94       	sei
    261c:	df 91       	pop	r29
    261e:	cf 91       	pop	r28
    2620:	1f 91       	pop	r17
    2622:	0f 91       	pop	r16
    2624:	ff 90       	pop	r15
    2626:	ef 90       	pop	r14
    2628:	df 90       	pop	r13
    262a:	08 95       	ret

0000262c <_ZN7OneWire4readEv>:
    262c:	ef 92       	push	r14
    262e:	ff 92       	push	r15
    2630:	0f 93       	push	r16
    2632:	1f 93       	push	r17
    2634:	cf 93       	push	r28
    2636:	df 93       	push	r29
    2638:	7c 01       	movw	r14, r24
    263a:	08 e0       	ldi	r16, 0x08	; 8
    263c:	10 e0       	ldi	r17, 0x00	; 0
    263e:	c0 e0       	ldi	r28, 0x00	; 0
    2640:	d1 e0       	ldi	r29, 0x01	; 1
    2642:	c7 01       	movw	r24, r14
    2644:	0e 94 b7 12 	call	0x256e	; 0x256e <_ZN7OneWire8read_bitEv>
    2648:	81 11       	cpse	r24, r1
    264a:	cd 2b       	or	r28, r29
    264c:	dd 0f       	add	r29, r29
    264e:	01 50       	subi	r16, 0x01	; 1
    2650:	11 09       	sbc	r17, r1
    2652:	b9 f7       	brne	.-18     	; 0x2642 <_ZN7OneWire4readEv+0x16>
    2654:	8c 2f       	mov	r24, r28
    2656:	df 91       	pop	r29
    2658:	cf 91       	pop	r28
    265a:	1f 91       	pop	r17
    265c:	0f 91       	pop	r16
    265e:	ff 90       	pop	r15
    2660:	ef 90       	pop	r14
    2662:	08 95       	ret

00002664 <_ZN7OneWire6selectEPKh>:
    2664:	ef 92       	push	r14
    2666:	ff 92       	push	r15
    2668:	0f 93       	push	r16
    266a:	1f 93       	push	r17
    266c:	cf 93       	push	r28
    266e:	df 93       	push	r29
    2670:	8c 01       	movw	r16, r24
    2672:	7b 01       	movw	r14, r22
    2674:	40 e0       	ldi	r20, 0x00	; 0
    2676:	65 e5       	ldi	r22, 0x55	; 85
    2678:	0e 94 e2 12 	call	0x25c4	; 0x25c4 <_ZN7OneWire5writeEhh>
    267c:	e7 01       	movw	r28, r14
    267e:	88 e0       	ldi	r24, 0x08	; 8
    2680:	e8 0e       	add	r14, r24
    2682:	f1 1c       	adc	r15, r1
    2684:	69 91       	ld	r22, Y+
    2686:	40 e0       	ldi	r20, 0x00	; 0
    2688:	c8 01       	movw	r24, r16
    268a:	0e 94 e2 12 	call	0x25c4	; 0x25c4 <_ZN7OneWire5writeEhh>
    268e:	ce 15       	cp	r28, r14
    2690:	df 05       	cpc	r29, r15
    2692:	c1 f7       	brne	.-16     	; 0x2684 <_ZN7OneWire6selectEPKh+0x20>
    2694:	df 91       	pop	r29
    2696:	cf 91       	pop	r28
    2698:	1f 91       	pop	r17
    269a:	0f 91       	pop	r16
    269c:	ff 90       	pop	r15
    269e:	ef 90       	pop	r14
    26a0:	08 95       	ret

000026a2 <_ZN7OneWire4skipEv>:
    26a2:	40 e0       	ldi	r20, 0x00	; 0
    26a4:	6c ec       	ldi	r22, 0xCC	; 204
    26a6:	0c 94 e2 12 	jmp	0x25c4	; 0x25c4 <_ZN7OneWire5writeEhh>

000026aa <_ZN7OneWire12reset_searchEv>:
    26aa:	fc 01       	movw	r30, r24
    26ac:	13 86       	std	Z+11, r1	; 0x0b
    26ae:	15 86       	std	Z+13, r1	; 0x0d
    26b0:	14 86       	std	Z+12, r1	; 0x0c
    26b2:	dc 01       	movw	r26, r24
    26b4:	1b 96       	adiw	r26, 0x0b	; 11
    26b6:	33 96       	adiw	r30, 0x03	; 3
    26b8:	1e 92       	st	-X, r1
    26ba:	ae 17       	cp	r26, r30
    26bc:	bf 07       	cpc	r27, r31
    26be:	e1 f7       	brne	.-8      	; 0x26b8 <_ZN7OneWire12reset_searchEv+0xe>
    26c0:	08 95       	ret

000026c2 <_ZN7OneWire5beginEh>:
    26c2:	1f 93       	push	r17
    26c4:	cf 93       	push	r28
    26c6:	df 93       	push	r29
    26c8:	ec 01       	movw	r28, r24
    26ca:	16 2f       	mov	r17, r22
    26cc:	60 e0       	ldi	r22, 0x00	; 0
    26ce:	81 2f       	mov	r24, r17
    26d0:	0e 94 df 1d 	call	0x3bbe	; 0x3bbe <pinMode>
    26d4:	61 2f       	mov	r22, r17
    26d6:	70 e0       	ldi	r23, 0x00	; 0
    26d8:	fb 01       	movw	r30, r22
    26da:	e4 56       	subi	r30, 0x64	; 100
    26dc:	ff 4f       	sbci	r31, 0xFF	; 255
    26de:	e4 91       	lpm	r30, Z
    26e0:	e8 83       	st	Y, r30
    26e2:	fb 01       	movw	r30, r22
    26e4:	e0 55       	subi	r30, 0x50	; 80
    26e6:	ff 4f       	sbci	r31, 0xFF	; 255
    26e8:	e4 91       	lpm	r30, Z
    26ea:	f0 e0       	ldi	r31, 0x00	; 0
    26ec:	ee 0f       	add	r30, r30
    26ee:	ff 1f       	adc	r31, r31
    26f0:	ec 53       	subi	r30, 0x3C	; 60
    26f2:	ff 4f       	sbci	r31, 0xFF	; 255
    26f4:	85 91       	lpm	r24, Z+
    26f6:	94 91       	lpm	r25, Z
    26f8:	9a 83       	std	Y+2, r25	; 0x02
    26fa:	89 83       	std	Y+1, r24	; 0x01
    26fc:	ce 01       	movw	r24, r28
    26fe:	df 91       	pop	r29
    2700:	cf 91       	pop	r28
    2702:	1f 91       	pop	r17
    2704:	0c 94 55 13 	jmp	0x26aa	; 0x26aa <_ZN7OneWire12reset_searchEv>

00002708 <_ZN7OneWire6searchEPhb>:
// search state.
// Return TRUE  : device found, ROM number in ROM_NO buffer
//        FALSE : device not found, end of search
//
bool OneWire::search(uint8_t *newAddr, bool search_mode /* = true */)
{
    2708:	bf 92       	push	r11
    270a:	cf 92       	push	r12
    270c:	df 92       	push	r13
    270e:	ef 92       	push	r14
    2710:	ff 92       	push	r15
    2712:	0f 93       	push	r16
    2714:	1f 93       	push	r17
    2716:	cf 93       	push	r28
    2718:	df 93       	push	r29
    271a:	ec 01       	movw	r28, r24
    271c:	6b 01       	movw	r12, r22
    271e:	14 2f       	mov	r17, r20
   rom_byte_number = 0;
   rom_byte_mask = 1;
   search_result = false;

   // if the last call was not the last one
   if (!LastDeviceFlag) {
    2720:	8d 85       	ldd	r24, Y+13	; 0x0d
    2722:	81 11       	cpse	r24, r1
    2724:	05 c0       	rjmp	.+10     	; 0x2730 <_ZN7OneWire6searchEPhb+0x28>
      // 1-Wire reset
      if (!reset()) {
    2726:	ce 01       	movw	r24, r28
    2728:	0e 94 45 12 	call	0x248a	; 0x248a <_ZN7OneWire5resetEv>
    272c:	81 11       	cpse	r24, r1
    272e:	05 c0       	rjmp	.+10     	; 0x273a <_ZN7OneWire6searchEPhb+0x32>
         // reset the search
         LastDiscrepancy = 0;
    2730:	1b 86       	std	Y+11, r1	; 0x0b
         LastDeviceFlag = false;
    2732:	1d 86       	std	Y+13, r1	; 0x0d
         LastFamilyDiscrepancy = 0;
    2734:	1c 86       	std	Y+12, r1	; 0x0c
         return false;
    2736:	80 e0       	ldi	r24, 0x00	; 0
    2738:	64 c0       	rjmp	.+200    	; 0x2802 <_ZN7OneWire6searchEPhb+0xfa>
      }

      // issue the search command
      if (search_mode == true) {
        write(0xF0);   // NORMAL SEARCH
    273a:	40 e0       	ldi	r20, 0x00	; 0
         LastFamilyDiscrepancy = 0;
         return false;
      }

      // issue the search command
      if (search_mode == true) {
    273c:	11 23       	and	r17, r17
    273e:	11 f0       	breq	.+4      	; 0x2744 <_ZN7OneWire6searchEPhb+0x3c>
        write(0xF0);   // NORMAL SEARCH
    2740:	60 ef       	ldi	r22, 0xF0	; 240
    2742:	01 c0       	rjmp	.+2      	; 0x2746 <_ZN7OneWire6searchEPhb+0x3e>
      } else {
        write(0xEC);   // CONDITIONAL SEARCH
    2744:	6c ee       	ldi	r22, 0xEC	; 236
    2746:	ce 01       	movw	r24, r28
    2748:	0e 94 e2 12 	call	0x25c4	; 0x25c4 <_ZN7OneWire5writeEhh>
// search state.
// Return TRUE  : device found, ROM number in ROM_NO buffer
//        FALSE : device not found, end of search
//
bool OneWire::search(uint8_t *newAddr, bool search_mode /* = true */)
{
    274c:	01 e0       	ldi	r16, 0x01	; 1
    274e:	e1 2c       	mov	r14, r1
    2750:	b1 2c       	mov	r11, r1
    2752:	11 e0       	ldi	r17, 0x01	; 1

      // loop to do the search
      do
      {
         // read a bit and its complement
         id_bit = read_bit();
    2754:	ce 01       	movw	r24, r28
    2756:	0e 94 b7 12 	call	0x256e	; 0x256e <_ZN7OneWire8read_bitEv>
    275a:	f8 2e       	mov	r15, r24
         cmp_id_bit = read_bit();
    275c:	ce 01       	movw	r24, r28
    275e:	0e 94 b7 12 	call	0x256e	; 0x256e <_ZN7OneWire8read_bitEv>

         // check for no devices on 1-wire
         if ((id_bit == 1) && (cmp_id_bit == 1)) {
    2762:	91 e0       	ldi	r25, 0x01	; 1
    2764:	f9 12       	cpse	r15, r25
    2766:	03 c0       	rjmp	.+6      	; 0x276e <_ZN7OneWire6searchEPhb+0x66>
    2768:	81 30       	cpi	r24, 0x01	; 1
    276a:	b1 f4       	brne	.+44     	; 0x2798 <_ZN7OneWire6searchEPhb+0x90>
    276c:	34 c0       	rjmp	.+104    	; 0x27d6 <_ZN7OneWire6searchEPhb+0xce>
    276e:	2e 2d       	mov	r18, r14
    2770:	30 e0       	ldi	r19, 0x00	; 0
            break;
         } else {
            // all devices coupled have 0 or 1
            if (id_bit != cmp_id_bit) {
    2772:	f8 12       	cpse	r15, r24
    2774:	1b c0       	rjmp	.+54     	; 0x27ac <_ZN7OneWire6searchEPhb+0xa4>
               search_direction = id_bit;  // bit write value for search
            } else {
               // if this discrepancy if before the Last Discrepancy
               // on a previous next then pick the same as last time
               if (id_bit_number < LastDiscrepancy) {
    2776:	8b 85       	ldd	r24, Y+11	; 0x0b
    2778:	18 17       	cp	r17, r24
    277a:	38 f4       	brcc	.+14     	; 0x278a <_ZN7OneWire6searchEPhb+0x82>
                  search_direction = ((ROM_NO[rom_byte_number] & rom_byte_mask) > 0);
    277c:	fe 01       	movw	r30, r28
    277e:	e2 0f       	add	r30, r18
    2780:	f3 1f       	adc	r31, r19
    2782:	83 81       	ldd	r24, Z+3	; 0x03
    2784:	80 23       	and	r24, r16
    2786:	41 f4       	brne	.+16     	; 0x2798 <_ZN7OneWire6searchEPhb+0x90>
    2788:	02 c0       	rjmp	.+4      	; 0x278e <_ZN7OneWire6searchEPhb+0x86>
               } else {
                  // if equal to last pick 1, if not then pick 0
                  search_direction = (id_bit_number == LastDiscrepancy);
    278a:	18 17       	cp	r17, r24
    278c:	29 f0       	breq	.+10     	; 0x2798 <_ZN7OneWire6searchEPhb+0x90>
    278e:	f1 2c       	mov	r15, r1
               // if 0 was picked then record its position in LastZero
               if (search_direction == 0) {
                  last_zero = id_bit_number;

                  // check for Last discrepancy in family
                  if (last_zero < 9)
    2790:	19 30       	cpi	r17, 0x09	; 9
    2792:	58 f4       	brcc	.+22     	; 0x27aa <_ZN7OneWire6searchEPhb+0xa2>
                     LastFamilyDiscrepancy = last_zero;
    2794:	1c 87       	std	Y+12, r17	; 0x0c
    2796:	09 c0       	rjmp	.+18     	; 0x27aa <_ZN7OneWire6searchEPhb+0xa2>
            }

            // set or clear the bit in the ROM byte rom_byte_number
            // with mask rom_byte_mask
            if (search_direction == 1)
              ROM_NO[rom_byte_number] |= rom_byte_mask;
    2798:	fe 01       	movw	r30, r28
    279a:	ee 0d       	add	r30, r14
    279c:	f1 1d       	adc	r31, r1
    279e:	83 81       	ldd	r24, Z+3	; 0x03
    27a0:	80 2b       	or	r24, r16
    27a2:	83 83       	std	Z+3, r24	; 0x03
    27a4:	ff 24       	eor	r15, r15
    27a6:	f3 94       	inc	r15
    27a8:	09 c0       	rjmp	.+18     	; 0x27bc <_ZN7OneWire6searchEPhb+0xb4>
// search state.
// Return TRUE  : device found, ROM number in ROM_NO buffer
//        FALSE : device not found, end of search
//
bool OneWire::search(uint8_t *newAddr, bool search_mode /* = true */)
{
    27aa:	b1 2e       	mov	r11, r17
            // set or clear the bit in the ROM byte rom_byte_number
            // with mask rom_byte_mask
            if (search_direction == 1)
              ROM_NO[rom_byte_number] |= rom_byte_mask;
            else
              ROM_NO[rom_byte_number] &= ~rom_byte_mask;
    27ac:	fe 01       	movw	r30, r28
    27ae:	e2 0f       	add	r30, r18
    27b0:	f3 1f       	adc	r31, r19
    27b2:	93 81       	ldd	r25, Z+3	; 0x03
    27b4:	80 2f       	mov	r24, r16
    27b6:	80 95       	com	r24
    27b8:	89 23       	and	r24, r25
    27ba:	83 83       	std	Z+3, r24	; 0x03

            // serial number search direction write bit
            write_bit(search_direction);
    27bc:	6f 2d       	mov	r22, r15
    27be:	ce 01       	movw	r24, r28
    27c0:	0e 94 84 12 	call	0x2508	; 0x2508 <_ZN7OneWire9write_bitEh>

            // increment the byte counter id_bit_number
            // and shift the mask rom_byte_mask
            id_bit_number++;
    27c4:	1f 5f       	subi	r17, 0xFF	; 255
            rom_byte_mask <<= 1;
    27c6:	00 0f       	add	r16, r16

            // if the mask is 0 then go to new SerialNum byte rom_byte_number and reset mask
            if (rom_byte_mask == 0) {
    27c8:	11 f4       	brne	.+4      	; 0x27ce <_ZN7OneWire6searchEPhb+0xc6>
                rom_byte_number++;
    27ca:	e3 94       	inc	r14
                rom_byte_mask = 1;
    27cc:	01 e0       	ldi	r16, 0x01	; 1
            }
         }
      }
      while(rom_byte_number < 8);  // loop until through all ROM bytes 0-7
    27ce:	87 e0       	ldi	r24, 0x07	; 7
    27d0:	8e 15       	cp	r24, r14
    27d2:	08 f0       	brcs	.+2      	; 0x27d6 <_ZN7OneWire6searchEPhb+0xce>
    27d4:	bf cf       	rjmp	.-130    	; 0x2754 <_ZN7OneWire6searchEPhb+0x4c>

      // if the search was successful then
      if (!(id_bit_number < 65)) {
    27d6:	11 34       	cpi	r17, 0x41	; 65
    27d8:	08 f4       	brcc	.+2      	; 0x27dc <_ZN7OneWire6searchEPhb+0xd4>
    27da:	aa cf       	rjmp	.-172    	; 0x2730 <_ZN7OneWire6searchEPhb+0x28>
         // search successful so set LastDiscrepancy,LastDeviceFlag,search_result
         LastDiscrepancy = last_zero;
    27dc:	bb 86       	std	Y+11, r11	; 0x0b

         // check for last device
         if (LastDiscrepancy == 0) {
    27de:	b1 10       	cpse	r11, r1
    27e0:	02 c0       	rjmp	.+4      	; 0x27e6 <_ZN7OneWire6searchEPhb+0xde>
            LastDeviceFlag = true;
    27e2:	81 e0       	ldi	r24, 0x01	; 1
    27e4:	8d 87       	std	Y+13, r24	; 0x0d
         search_result = true;
      }
   }

   // if no device found then reset counters so next 'search' will be like a first
   if (!search_result || !ROM_NO[0]) {
    27e6:	8b 81       	ldd	r24, Y+3	; 0x03
    27e8:	88 23       	and	r24, r24
    27ea:	09 f4       	brne	.+2      	; 0x27ee <_ZN7OneWire6searchEPhb+0xe6>
    27ec:	a1 cf       	rjmp	.-190    	; 0x2730 <_ZN7OneWire6searchEPhb+0x28>
    27ee:	de 01       	movw	r26, r28
    27f0:	13 96       	adiw	r26, 0x03	; 3
    27f2:	f6 01       	movw	r30, r12
    27f4:	2b 96       	adiw	r28, 0x0b	; 11
      LastDiscrepancy = 0;
      LastDeviceFlag = false;
      LastFamilyDiscrepancy = 0;
      search_result = false;
   } else {
      for (int i = 0; i < 8; i++) newAddr[i] = ROM_NO[i];
    27f6:	8d 91       	ld	r24, X+
    27f8:	81 93       	st	Z+, r24
    27fa:	ca 17       	cp	r28, r26
    27fc:	db 07       	cpc	r29, r27
    27fe:	d9 f7       	brne	.-10     	; 0x27f6 <_ZN7OneWire6searchEPhb+0xee>
    2800:	81 e0       	ldi	r24, 0x01	; 1
   }
   return search_result;
  }
    2802:	df 91       	pop	r29
    2804:	cf 91       	pop	r28
    2806:	1f 91       	pop	r17
    2808:	0f 91       	pop	r16
    280a:	ff 90       	pop	r15
    280c:	ef 90       	pop	r14
    280e:	df 90       	pop	r13
    2810:	cf 90       	pop	r12
    2812:	bf 90       	pop	r11
    2814:	08 95       	ret

00002816 <_ZN7OneWire4crc8EPKhh>:
};

// Compute a Dallas Semiconductor 8 bit CRC. These show up in the ROM
// and the registers.  (Use tiny 2x16 entry CRC table)
uint8_t OneWire::crc8(const uint8_t *addr, uint8_t len)
{
    2816:	dc 01       	movw	r26, r24
	uint8_t crc = 0;
    2818:	80 e0       	ldi	r24, 0x00	; 0

	while (len--) {
    281a:	61 50       	subi	r22, 0x01	; 1
    281c:	98 f0       	brcs	.+38     	; 0x2844 <_ZN7OneWire4crc8EPKhh+0x2e>
		crc = *addr++ ^ crc;  // just re-using crc as intermediate
    281e:	2d 91       	ld	r18, X+
    2820:	98 2f       	mov	r25, r24
    2822:	92 27       	eor	r25, r18
		crc = pgm_read_byte(dscrc2x16_table + (crc & 0x0f)) ^
    2824:	e9 2f       	mov	r30, r25
    2826:	ef 70       	andi	r30, 0x0F	; 15
    2828:	f0 e0       	ldi	r31, 0x00	; 0
    282a:	e8 59       	subi	r30, 0x98	; 152
    282c:	ff 4f       	sbci	r31, 0xFF	; 255
    282e:	24 91       	lpm	r18, Z
		pgm_read_byte(dscrc2x16_table + 16 + ((crc >> 4) & 0x0f));
    2830:	92 95       	swap	r25
    2832:	9f 70       	andi	r25, 0x0F	; 15
    2834:	e9 2f       	mov	r30, r25
    2836:	f0 e0       	ldi	r31, 0x00	; 0
    2838:	e8 58       	subi	r30, 0x88	; 136
    283a:	ff 4f       	sbci	r31, 0xFF	; 255
    283c:	e4 91       	lpm	r30, Z
    283e:	82 2f       	mov	r24, r18
    2840:	8e 27       	eor	r24, r30
// and the registers.  (Use tiny 2x16 entry CRC table)
uint8_t OneWire::crc8(const uint8_t *addr, uint8_t len)
{
	uint8_t crc = 0;

	while (len--) {
    2842:	eb cf       	rjmp	.-42     	; 0x281a <_ZN7OneWire4crc8EPKhh+0x4>
		crc = pgm_read_byte(dscrc2x16_table + (crc & 0x0f)) ^
		pgm_read_byte(dscrc2x16_table + 16 + ((crc >> 4) & 0x0f));
	}

	return crc;
}
    2844:	08 95       	ret

00002846 <_ZN11SimpleTimerC1Ev>:
}


int SimpleTimer::setTimeout(long d, timer_callback f) {
    return setTimer(d, f, RUN_ONCE);
}
    2846:	cf 92       	push	r12
    2848:	df 92       	push	r13
    284a:	ef 92       	push	r14
    284c:	ff 92       	push	r15
    284e:	cf 93       	push	r28
    2850:	df 93       	push	r29
    2852:	ec 01       	movw	r28, r24
    2854:	0e 94 87 1c 	call	0x390e	; 0x390e <millis>
    2858:	7e 01       	movw	r14, r28
    285a:	2c e8       	ldi	r18, 0x8C	; 140
    285c:	e2 0e       	add	r14, r18
    285e:	f1 1c       	adc	r15, r1
    2860:	fe 01       	movw	r30, r28
    2862:	b8 96       	adiw	r30, 0x28	; 40
    2864:	6e 01       	movw	r12, r28
    2866:	9e 01       	movw	r18, r28
    2868:	24 5c       	subi	r18, 0xC4	; 196
    286a:	3f 4f       	sbci	r19, 0xFF	; 255
    286c:	d7 01       	movw	r26, r14
    286e:	1d 92       	st	X+, r1
    2870:	7d 01       	movw	r14, r26
    2872:	11 92       	st	Z+, r1
    2874:	11 92       	st	Z+, r1
    2876:	d6 01       	movw	r26, r12
    2878:	6d 93       	st	X+, r22
    287a:	7d 93       	st	X+, r23
    287c:	8d 93       	st	X+, r24
    287e:	9d 93       	st	X+, r25
    2880:	6d 01       	movw	r12, r26
    2882:	af 01       	movw	r20, r30
    2884:	42 5b       	subi	r20, 0xB2	; 178
    2886:	5f 4f       	sbci	r21, 0xFF	; 255
    2888:	da 01       	movw	r26, r20
    288a:	1d 92       	st	X+, r1
    288c:	1c 92       	st	X, r1
    288e:	e2 17       	cp	r30, r18
    2890:	f3 07       	cpc	r31, r19
    2892:	61 f7       	brne	.-40     	; 0x286c <_ZN11SimpleTimerC1Ev+0x26>
    2894:	c6 55       	subi	r28, 0x56	; 86
    2896:	df 4f       	sbci	r29, 0xFF	; 255
    2898:	19 82       	std	Y+1, r1	; 0x01
    289a:	18 82       	st	Y, r1
    289c:	df 91       	pop	r29
    289e:	cf 91       	pop	r28
    28a0:	ff 90       	pop	r15
    28a2:	ef 90       	pop	r14
    28a4:	df 90       	pop	r13
    28a6:	cf 90       	pop	r12
    28a8:	08 95       	ret

000028aa <_ZN11SimpleTimer17findFirstFreeSlotEv>:
    28aa:	fc 01       	movw	r30, r24
    28ac:	e6 55       	subi	r30, 0x56	; 86
    28ae:	ff 4f       	sbci	r31, 0xFF	; 255
    28b0:	20 81       	ld	r18, Z
    28b2:	31 81       	ldd	r19, Z+1	; 0x01
    28b4:	2a 30       	cpi	r18, 0x0A	; 10
    28b6:	31 05       	cpc	r19, r1
    28b8:	6c f4       	brge	.+26     	; 0x28d4 <_ZN11SimpleTimer17findFirstFreeSlotEv+0x2a>
    28ba:	e2 58       	subi	r30, 0x82	; 130
    28bc:	f1 09       	sbc	r31, r1
    28be:	20 e0       	ldi	r18, 0x00	; 0
    28c0:	30 e0       	ldi	r19, 0x00	; 0
    28c2:	81 91       	ld	r24, Z+
    28c4:	91 91       	ld	r25, Z+
    28c6:	89 2b       	or	r24, r25
    28c8:	41 f0       	breq	.+16     	; 0x28da <_ZN11SimpleTimer17findFirstFreeSlotEv+0x30>
    28ca:	2f 5f       	subi	r18, 0xFF	; 255
    28cc:	3f 4f       	sbci	r19, 0xFF	; 255
    28ce:	2a 30       	cpi	r18, 0x0A	; 10
    28d0:	31 05       	cpc	r19, r1
    28d2:	b9 f7       	brne	.-18     	; 0x28c2 <_ZN11SimpleTimer17findFirstFreeSlotEv+0x18>
    28d4:	8f ef       	ldi	r24, 0xFF	; 255
    28d6:	9f ef       	ldi	r25, 0xFF	; 255
    28d8:	08 95       	ret
    28da:	c9 01       	movw	r24, r18
    28dc:	08 95       	ret

000028de <_ZN11SimpleTimer8setTimerElPFvvEi>:
    28de:	4f 92       	push	r4
    28e0:	5f 92       	push	r5
    28e2:	6f 92       	push	r6
    28e4:	7f 92       	push	r7
    28e6:	af 92       	push	r10
    28e8:	bf 92       	push	r11
    28ea:	cf 92       	push	r12
    28ec:	df 92       	push	r13
    28ee:	ef 92       	push	r14
    28f0:	ff 92       	push	r15
    28f2:	0f 93       	push	r16
    28f4:	1f 93       	push	r17
    28f6:	cf 93       	push	r28
    28f8:	df 93       	push	r29
    28fa:	ec 01       	movw	r28, r24
    28fc:	2a 01       	movw	r4, r20
    28fe:	3b 01       	movw	r6, r22
    2900:	69 01       	movw	r12, r18
    2902:	0e 94 55 14 	call	0x28aa	; 0x28aa <_ZN11SimpleTimer17findFirstFreeSlotEv>
    2906:	7c 01       	movw	r14, r24
    2908:	97 fd       	sbrc	r25, 7
    290a:	31 c0       	rjmp	.+98     	; 0x296e <_ZN11SimpleTimer8setTimerElPFvvEi+0x90>
    290c:	c1 14       	cp	r12, r1
    290e:	d1 04       	cpc	r13, r1
    2910:	71 f1       	breq	.+92     	; 0x296e <_ZN11SimpleTimer8setTimerElPFvvEi+0x90>
    2912:	5c 01       	movw	r10, r24
    2914:	aa 0c       	add	r10, r10
    2916:	bb 1c       	adc	r11, r11
    2918:	aa 0c       	add	r10, r10
    291a:	bb 1c       	adc	r11, r11
    291c:	ac 0e       	add	r10, r28
    291e:	bd 1e       	adc	r11, r29
    2920:	f5 01       	movw	r30, r10
    2922:	44 ae       	std	Z+60, r4	; 0x3c
    2924:	55 ae       	std	Z+61, r5	; 0x3d
    2926:	66 ae       	std	Z+62, r6	; 0x3e
    2928:	77 ae       	std	Z+63, r7	; 0x3f
    292a:	f7 01       	movw	r30, r14
    292c:	ee 0f       	add	r30, r30
    292e:	ff 1f       	adc	r31, r31
    2930:	ec 0f       	add	r30, r28
    2932:	fd 1f       	adc	r31, r29
    2934:	d1 a6       	std	Z+41, r13	; 0x29
    2936:	c0 a6       	std	Z+40, r12	; 0x28
    2938:	ec 59       	subi	r30, 0x9C	; 156
    293a:	ff 4f       	sbci	r31, 0xFF	; 255
    293c:	11 83       	std	Z+1, r17	; 0x01
    293e:	00 83       	st	Z, r16
    2940:	fe 01       	movw	r30, r28
    2942:	ee 0d       	add	r30, r14
    2944:	ff 1d       	adc	r31, r15
    2946:	e4 57       	subi	r30, 0x74	; 116
    2948:	ff 4f       	sbci	r31, 0xFF	; 255
    294a:	81 e0       	ldi	r24, 0x01	; 1
    294c:	80 83       	st	Z, r24
    294e:	0e 94 87 1c 	call	0x390e	; 0x390e <millis>
    2952:	f5 01       	movw	r30, r10
    2954:	60 83       	st	Z, r22
    2956:	71 83       	std	Z+1, r23	; 0x01
    2958:	82 83       	std	Z+2, r24	; 0x02
    295a:	93 83       	std	Z+3, r25	; 0x03
    295c:	c6 55       	subi	r28, 0x56	; 86
    295e:	df 4f       	sbci	r29, 0xFF	; 255
    2960:	88 81       	ld	r24, Y
    2962:	99 81       	ldd	r25, Y+1	; 0x01
    2964:	01 96       	adiw	r24, 0x01	; 1
    2966:	99 83       	std	Y+1, r25	; 0x01
    2968:	88 83       	st	Y, r24
    296a:	c7 01       	movw	r24, r14
    296c:	02 c0       	rjmp	.+4      	; 0x2972 <_ZN11SimpleTimer8setTimerElPFvvEi+0x94>
    296e:	8f ef       	ldi	r24, 0xFF	; 255
    2970:	9f ef       	ldi	r25, 0xFF	; 255
    2972:	df 91       	pop	r29
    2974:	cf 91       	pop	r28
    2976:	1f 91       	pop	r17
    2978:	0f 91       	pop	r16
    297a:	ff 90       	pop	r15
    297c:	ef 90       	pop	r14
    297e:	df 90       	pop	r13
    2980:	cf 90       	pop	r12
    2982:	bf 90       	pop	r11
    2984:	af 90       	pop	r10
    2986:	7f 90       	pop	r7
    2988:	6f 90       	pop	r6
    298a:	5f 90       	pop	r5
    298c:	4f 90       	pop	r4
    298e:	08 95       	ret

00002990 <_ZN11SimpleTimer11setIntervalElPFvvE>:
    2990:	0f 93       	push	r16
    2992:	1f 93       	push	r17
    2994:	00 e0       	ldi	r16, 0x00	; 0
    2996:	10 e0       	ldi	r17, 0x00	; 0
    2998:	0e 94 6f 14 	call	0x28de	; 0x28de <_ZN11SimpleTimer8setTimerElPFvvEi>
    299c:	1f 91       	pop	r17
    299e:	0f 91       	pop	r16
    29a0:	08 95       	ret

000029a2 <_ZN11SimpleTimer11deleteTimerEi>:


void SimpleTimer::deleteTimer(int timerId) {
    29a2:	cf 93       	push	r28
    29a4:	df 93       	push	r29
    if (timerId >= MAX_TIMERS) {
    29a6:	6a 30       	cpi	r22, 0x0A	; 10
    29a8:	71 05       	cpc	r23, r1
    29aa:	bc f5       	brge	.+110    	; 0x2a1a <_ZN11SimpleTimer11deleteTimerEi+0x78>
        return;
    }

    // nothing to delete if no timers are in use
    if (numTimers == 0) {
    29ac:	ec 01       	movw	r28, r24
    29ae:	c6 55       	subi	r28, 0x56	; 86
    29b0:	df 4f       	sbci	r29, 0xFF	; 255
    29b2:	28 81       	ld	r18, Y
    29b4:	39 81       	ldd	r19, Y+1	; 0x01
    29b6:	21 15       	cp	r18, r1
    29b8:	31 05       	cpc	r19, r1
    29ba:	79 f1       	breq	.+94     	; 0x2a1a <_ZN11SimpleTimer11deleteTimerEi+0x78>
    29bc:	db 01       	movw	r26, r22
    29be:	aa 0f       	add	r26, r26
    29c0:	bb 1f       	adc	r27, r27
    29c2:	a8 0f       	add	r26, r24
    29c4:	b9 1f       	adc	r27, r25
        return;
    }

    // don't decrease the number of timers if the
    // specified slot is already empty
    if (callbacks[timerId] != NULL) {
    29c6:	98 96       	adiw	r26, 0x28	; 40
    29c8:	4d 91       	ld	r20, X+
    29ca:	5c 91       	ld	r21, X
    29cc:	99 97       	sbiw	r26, 0x29	; 41
    29ce:	45 2b       	or	r20, r21
    29d0:	21 f1       	breq	.+72     	; 0x2a1a <_ZN11SimpleTimer11deleteTimerEi+0x78>
        callbacks[timerId] = 0;
    29d2:	99 96       	adiw	r26, 0x29	; 41
    29d4:	1c 92       	st	X, r1
    29d6:	1e 92       	st	-X, r1
    29d8:	98 97       	sbiw	r26, 0x28	; 40
        enabled[timerId] = false;
    29da:	fc 01       	movw	r30, r24
    29dc:	e6 0f       	add	r30, r22
    29de:	f7 1f       	adc	r31, r23
    29e0:	e4 57       	subi	r30, 0x74	; 116
    29e2:	ff 4f       	sbci	r31, 0xFF	; 255
    29e4:	10 82       	st	Z, r1
        toBeCalled[timerId] = DEFCALL_DONTRUN;
    29e6:	fd 01       	movw	r30, r26
    29e8:	ea 56       	subi	r30, 0x6A	; 106
    29ea:	ff 4f       	sbci	r31, 0xFF	; 255
    29ec:	11 82       	std	Z+1, r1	; 0x01
    29ee:	10 82       	st	Z, r1
        delays[timerId] = 0;
    29f0:	61 5f       	subi	r22, 0xF1	; 241
    29f2:	7f 4f       	sbci	r23, 0xFF	; 255
    29f4:	66 0f       	add	r22, r22
    29f6:	77 1f       	adc	r23, r23
    29f8:	66 0f       	add	r22, r22
    29fa:	77 1f       	adc	r23, r23
    29fc:	fc 01       	movw	r30, r24
    29fe:	e6 0f       	add	r30, r22
    2a00:	f7 1f       	adc	r31, r23
    2a02:	10 82       	st	Z, r1
    2a04:	11 82       	std	Z+1, r1	; 0x01
    2a06:	12 82       	std	Z+2, r1	; 0x02
    2a08:	13 82       	std	Z+3, r1	; 0x03
        numRuns[timerId] = 0;
    2a0a:	a8 58       	subi	r26, 0x88	; 136
    2a0c:	bf 4f       	sbci	r27, 0xFF	; 255
    2a0e:	1d 92       	st	X+, r1
    2a10:	1c 92       	st	X, r1

        // update number of timers
        numTimers--;
    2a12:	21 50       	subi	r18, 0x01	; 1
    2a14:	31 09       	sbc	r19, r1
    2a16:	39 83       	std	Y+1, r19	; 0x01
    2a18:	28 83       	st	Y, r18
    }
}
    2a1a:	df 91       	pop	r29
    2a1c:	cf 91       	pop	r28
    2a1e:	08 95       	ret

00002a20 <_ZN11SimpleTimer3runEv>:

    numTimers = 0;
}


void SimpleTimer::run() {
    2a20:	2f 92       	push	r2
    2a22:	3f 92       	push	r3
    2a24:	4f 92       	push	r4
    2a26:	5f 92       	push	r5
    2a28:	6f 92       	push	r6
    2a2a:	7f 92       	push	r7
    2a2c:	8f 92       	push	r8
    2a2e:	9f 92       	push	r9
    2a30:	af 92       	push	r10
    2a32:	bf 92       	push	r11
    2a34:	cf 92       	push	r12
    2a36:	df 92       	push	r13
    2a38:	ef 92       	push	r14
    2a3a:	ff 92       	push	r15
    2a3c:	0f 93       	push	r16
    2a3e:	1f 93       	push	r17
    2a40:	cf 93       	push	r28
    2a42:	df 93       	push	r29
    2a44:	00 d0       	rcall	.+0      	; 0x2a46 <_ZN11SimpleTimer3runEv+0x26>
    2a46:	00 d0       	rcall	.+0      	; 0x2a48 <_ZN11SimpleTimer3runEv+0x28>
    2a48:	00 d0       	rcall	.+0      	; 0x2a4a <_ZN11SimpleTimer3runEv+0x2a>
    2a4a:	cd b7       	in	r28, 0x3d	; 61
    2a4c:	de b7       	in	r29, 0x3e	; 62
    2a4e:	9c 83       	std	Y+4, r25	; 0x04
    2a50:	8b 83       	std	Y+3, r24	; 0x03
#include "SimpleTimer.h"


// Select time function:
//static inline unsigned long elapsed() { return micros(); }
static inline unsigned long elapsed() { return millis(); }
    2a52:	0e 94 87 1c 	call	0x390e	; 0x390e <millis>
    2a56:	6b 01       	movw	r12, r22
    2a58:	7c 01       	movw	r14, r24
    2a5a:	eb 81       	ldd	r30, Y+3	; 0x03
    2a5c:	fc 81       	ldd	r31, Y+4	; 0x04
    2a5e:	ec 59       	subi	r30, 0x9C	; 156
    2a60:	ff 4f       	sbci	r31, 0xFF	; 255
    2a62:	0b 81       	ldd	r16, Y+3	; 0x03
    2a64:	1c 81       	ldd	r17, Y+4	; 0x04
    2a66:	98 01       	movw	r18, r16
    2a68:	24 57       	subi	r18, 0x74	; 116
    2a6a:	3f 4f       	sbci	r19, 0xFF	; 255
    2a6c:	c8 01       	movw	r24, r16
    2a6e:	88 58       	subi	r24, 0x88	; 136
    2a70:	9f 4f       	sbci	r25, 0xFF	; 255
    2a72:	9a 83       	std	Y+2, r25	; 0x02
    2a74:	89 83       	std	Y+1, r24	; 0x01
    2a76:	1e 83       	std	Y+6, r17	; 0x06
    2a78:	0d 83       	std	Y+5, r16	; 0x05
                    if (maxNumRuns[i] == RUN_FOREVER) {
                        toBeCalled[i] = DEFCALL_RUNONLY;
                    }
                    // other timers get executed the specified number of times
                    else if (numRuns[i] < maxNumRuns[i]) {
                        toBeCalled[i] = DEFCALL_RUNONLY;
    2a7a:	22 24       	eor	r2, r2
    2a7c:	23 94       	inc	r2
    2a7e:	31 2c       	mov	r3, r1
    // get current time
    current_millis = elapsed();

    for (i = 0; i < MAX_TIMERS; i++) {

        toBeCalled[i] = DEFCALL_DONTRUN;
    2a80:	13 aa       	std	Z+51, r1	; 0x33
    2a82:	12 aa       	std	Z+50, r1	; 0x32

        // no callback == no timer, i.e. jump over empty slots
        if (callbacks[i]) {
    2a84:	cf 01       	movw	r24, r30
    2a86:	cc 97       	sbiw	r24, 0x3c	; 60
    2a88:	dc 01       	movw	r26, r24
    2a8a:	8d 91       	ld	r24, X+
    2a8c:	9c 91       	ld	r25, X
    2a8e:	89 2b       	or	r24, r25
    2a90:	f1 f1       	breq	.+124    	; 0x2b0e <_ZN11SimpleTimer3runEv+0xee>

            // is it time to process this timer ?
            // see http://arduino.cc/forum/index.php/topic,124048.msg932592.html#msg932592

            if (current_millis - prev_millis[i] >= delays[i]) {
    2a92:	ad 81       	ldd	r26, Y+5	; 0x05
    2a94:	be 81       	ldd	r27, Y+6	; 0x06
    2a96:	8d 90       	ld	r8, X+
    2a98:	9d 90       	ld	r9, X+
    2a9a:	ad 90       	ld	r10, X+
    2a9c:	bc 90       	ld	r11, X
    2a9e:	13 97       	sbiw	r26, 0x03	; 3
    2aa0:	dc 96       	adiw	r26, 0x3c	; 60
    2aa2:	4d 91       	ld	r20, X+
    2aa4:	5d 91       	ld	r21, X+
    2aa6:	6d 91       	ld	r22, X+
    2aa8:	7c 91       	ld	r23, X
    2aaa:	df 97       	sbiw	r26, 0x3f	; 63
    2aac:	26 01       	movw	r4, r12
    2aae:	37 01       	movw	r6, r14
    2ab0:	48 18       	sub	r4, r8
    2ab2:	59 08       	sbc	r5, r9
    2ab4:	6a 08       	sbc	r6, r10
    2ab6:	7b 08       	sbc	r7, r11
    2ab8:	44 16       	cp	r4, r20
    2aba:	55 06       	cpc	r5, r21
    2abc:	66 06       	cpc	r6, r22
    2abe:	77 06       	cpc	r7, r23
    2ac0:	30 f1       	brcs	.+76     	; 0x2b0e <_ZN11SimpleTimer3runEv+0xee>

                // update time
                //prev_millis[i] = current_millis;
                prev_millis[i] += delays[i];
    2ac2:	48 0d       	add	r20, r8
    2ac4:	59 1d       	adc	r21, r9
    2ac6:	6a 1d       	adc	r22, r10
    2ac8:	7b 1d       	adc	r23, r11
    2aca:	4d 93       	st	X+, r20
    2acc:	5d 93       	st	X+, r21
    2ace:	6d 93       	st	X+, r22
    2ad0:	7c 93       	st	X, r23
    2ad2:	13 97       	sbiw	r26, 0x03	; 3

                // check if the timer callback has to be executed
                if (enabled[i]) {
    2ad4:	d9 01       	movw	r26, r18
    2ad6:	8c 91       	ld	r24, X
    2ad8:	88 23       	and	r24, r24
    2ada:	c9 f0       	breq	.+50     	; 0x2b0e <_ZN11SimpleTimer3runEv+0xee>

                    // "run forever" timers must always be executed
                    if (maxNumRuns[i] == RUN_FOREVER) {
    2adc:	40 81       	ld	r20, Z
    2ade:	51 81       	ldd	r21, Z+1	; 0x01
    2ae0:	41 15       	cp	r20, r1
    2ae2:	51 05       	cpc	r21, r1
    2ae4:	19 f4       	brne	.+6      	; 0x2aec <_ZN11SimpleTimer3runEv+0xcc>
                        toBeCalled[i] = DEFCALL_RUNONLY;
    2ae6:	33 aa       	std	Z+51, r3	; 0x33
    2ae8:	22 aa       	std	Z+50, r2	; 0x32
    2aea:	11 c0       	rjmp	.+34     	; 0x2b0e <_ZN11SimpleTimer3runEv+0xee>
                    }
                    // other timers get executed the specified number of times
                    else if (numRuns[i] < maxNumRuns[i]) {
    2aec:	84 89       	ldd	r24, Z+20	; 0x14
    2aee:	95 89       	ldd	r25, Z+21	; 0x15
    2af0:	84 17       	cp	r24, r20
    2af2:	95 07       	cpc	r25, r21
    2af4:	64 f4       	brge	.+24     	; 0x2b0e <_ZN11SimpleTimer3runEv+0xee>
                        toBeCalled[i] = DEFCALL_RUNONLY;
    2af6:	33 aa       	std	Z+51, r3	; 0x33
    2af8:	22 aa       	std	Z+50, r2	; 0x32
                        numRuns[i]++;
    2afa:	01 96       	adiw	r24, 0x01	; 1
    2afc:	95 8b       	std	Z+21, r25	; 0x15
    2afe:	84 8b       	std	Z+20, r24	; 0x14

                        // after the last run, delete the timer
                        if (numRuns[i] >= maxNumRuns[i]) {
    2b00:	84 17       	cp	r24, r20
    2b02:	95 07       	cpc	r25, r21
    2b04:	24 f0       	brlt	.+8      	; 0x2b0e <_ZN11SimpleTimer3runEv+0xee>
                            toBeCalled[i] = DEFCALL_RUNANDDEL;
    2b06:	82 e0       	ldi	r24, 0x02	; 2
    2b08:	90 e0       	ldi	r25, 0x00	; 0
    2b0a:	93 ab       	std	Z+51, r25	; 0x33
    2b0c:	82 ab       	std	Z+50, r24	; 0x32
    2b0e:	32 96       	adiw	r30, 0x02	; 2
    2b10:	ad 81       	ldd	r26, Y+5	; 0x05
    2b12:	be 81       	ldd	r27, Y+6	; 0x06
    2b14:	14 96       	adiw	r26, 0x04	; 4
    2b16:	be 83       	std	Y+6, r27	; 0x06
    2b18:	ad 83       	std	Y+5, r26	; 0x05
    2b1a:	2f 5f       	subi	r18, 0xFF	; 255
    2b1c:	3f 4f       	sbci	r19, 0xFF	; 255
    unsigned long current_millis;

    // get current time
    current_millis = elapsed();

    for (i = 0; i < MAX_TIMERS; i++) {
    2b1e:	89 81       	ldd	r24, Y+1	; 0x01
    2b20:	9a 81       	ldd	r25, Y+2	; 0x02
    2b22:	e8 17       	cp	r30, r24
    2b24:	f9 07       	cpc	r31, r25
    2b26:	09 f0       	breq	.+2      	; 0x2b2a <_ZN11SimpleTimer3runEv+0x10a>
    2b28:	ab cf       	rjmp	.-170    	; 0x2a80 <_ZN11SimpleTimer3runEv+0x60>
    2b2a:	e1 2c       	mov	r14, r1
    2b2c:	f1 2c       	mov	r15, r1
            }
        }
    }

    for (i = 0; i < MAX_TIMERS; i++) {
        switch(toBeCalled[i]) {
    2b2e:	f8 01       	movw	r30, r16
    2b30:	ea 56       	subi	r30, 0x6A	; 106
    2b32:	ff 4f       	sbci	r31, 0xFF	; 255
    2b34:	80 81       	ld	r24, Z
    2b36:	91 81       	ldd	r25, Z+1	; 0x01
    2b38:	81 30       	cpi	r24, 0x01	; 1
    2b3a:	91 05       	cpc	r25, r1
    2b3c:	71 f0       	breq	.+28     	; 0x2b5a <_ZN11SimpleTimer3runEv+0x13a>
    2b3e:	02 97       	sbiw	r24, 0x02	; 2
    2b40:	91 f4       	brne	.+36     	; 0x2b66 <_ZN11SimpleTimer3runEv+0x146>
            case DEFCALL_RUNONLY:
                callbacks[i]();
                break;

            case DEFCALL_RUNANDDEL:
                callbacks[i]();
    2b42:	d8 01       	movw	r26, r16
    2b44:	98 96       	adiw	r26, 0x28	; 40
    2b46:	ed 91       	ld	r30, X+
    2b48:	fc 91       	ld	r31, X
    2b4a:	99 97       	sbiw	r26, 0x29	; 41
    2b4c:	09 95       	icall
                deleteTimer(i);
    2b4e:	b7 01       	movw	r22, r14
    2b50:	8b 81       	ldd	r24, Y+3	; 0x03
    2b52:	9c 81       	ldd	r25, Y+4	; 0x04
    2b54:	0e 94 d1 14 	call	0x29a2	; 0x29a2 <_ZN11SimpleTimer11deleteTimerEi>
                break;
    2b58:	06 c0       	rjmp	.+12     	; 0x2b66 <_ZN11SimpleTimer3runEv+0x146>
        switch(toBeCalled[i]) {
            case DEFCALL_DONTRUN:
                break;

            case DEFCALL_RUNONLY:
                callbacks[i]();
    2b5a:	d8 01       	movw	r26, r16
    2b5c:	98 96       	adiw	r26, 0x28	; 40
    2b5e:	ed 91       	ld	r30, X+
    2b60:	fc 91       	ld	r31, X
    2b62:	99 97       	sbiw	r26, 0x29	; 41
    2b64:	09 95       	icall
                }
            }
        }
    }

    for (i = 0; i < MAX_TIMERS; i++) {
    2b66:	bf ef       	ldi	r27, 0xFF	; 255
    2b68:	eb 1a       	sub	r14, r27
    2b6a:	fb 0a       	sbc	r15, r27
    2b6c:	0e 5f       	subi	r16, 0xFE	; 254
    2b6e:	1f 4f       	sbci	r17, 0xFF	; 255
    2b70:	8a e0       	ldi	r24, 0x0A	; 10
    2b72:	e8 16       	cp	r14, r24
    2b74:	f1 04       	cpc	r15, r1
    2b76:	d9 f6       	brne	.-74     	; 0x2b2e <_ZN11SimpleTimer3runEv+0x10e>
                callbacks[i]();
                deleteTimer(i);
                break;
        }
    }
}
    2b78:	26 96       	adiw	r28, 0x06	; 6
    2b7a:	0f b6       	in	r0, 0x3f	; 63
    2b7c:	f8 94       	cli
    2b7e:	de bf       	out	0x3e, r29	; 62
    2b80:	0f be       	out	0x3f, r0	; 63
    2b82:	cd bf       	out	0x3d, r28	; 61
    2b84:	df 91       	pop	r29
    2b86:	cf 91       	pop	r28
    2b88:	1f 91       	pop	r17
    2b8a:	0f 91       	pop	r16
    2b8c:	ff 90       	pop	r15
    2b8e:	ef 90       	pop	r14
    2b90:	df 90       	pop	r13
    2b92:	cf 90       	pop	r12
    2b94:	bf 90       	pop	r11
    2b96:	af 90       	pop	r10
    2b98:	9f 90       	pop	r9
    2b9a:	8f 90       	pop	r8
    2b9c:	7f 90       	pop	r7
    2b9e:	6f 90       	pop	r6
    2ba0:	5f 90       	pop	r5
    2ba2:	4f 90       	pop	r4
    2ba4:	3f 90       	pop	r3
    2ba6:	2f 90       	pop	r2
    2ba8:	08 95       	ret

00002baa <_ZN11SimpleTimer12restartTimerEi>:
    }
}


// function contributed by code@rowansimms.com
void SimpleTimer::restartTimer(int numTimer) {
    2baa:	0f 93       	push	r16
    2bac:	1f 93       	push	r17
    2bae:	cf 93       	push	r28
    2bb0:	df 93       	push	r29
    if (numTimer >= MAX_TIMERS) {
    2bb2:	6a 30       	cpi	r22, 0x0A	; 10
    2bb4:	71 05       	cpc	r23, r1
    2bb6:	74 f4       	brge	.+28     	; 0x2bd4 <_ZN11SimpleTimer12restartTimerEi+0x2a>
    2bb8:	eb 01       	movw	r28, r22
    2bba:	8c 01       	movw	r16, r24
#include "SimpleTimer.h"


// Select time function:
//static inline unsigned long elapsed() { return micros(); }
static inline unsigned long elapsed() { return millis(); }
    2bbc:	0e 94 87 1c 	call	0x390e	; 0x390e <millis>
void SimpleTimer::restartTimer(int numTimer) {
    if (numTimer >= MAX_TIMERS) {
        return;
    }

    prev_millis[numTimer] = elapsed();
    2bc0:	cc 0f       	add	r28, r28
    2bc2:	dd 1f       	adc	r29, r29
    2bc4:	cc 0f       	add	r28, r28
    2bc6:	dd 1f       	adc	r29, r29
    2bc8:	c0 0f       	add	r28, r16
    2bca:	d1 1f       	adc	r29, r17
    2bcc:	68 83       	st	Y, r22
    2bce:	79 83       	std	Y+1, r23	; 0x01
    2bd0:	8a 83       	std	Y+2, r24	; 0x02
    2bd2:	9b 83       	std	Y+3, r25	; 0x03
}
    2bd4:	df 91       	pop	r29
    2bd6:	cf 91       	pop	r28
    2bd8:	1f 91       	pop	r17
    2bda:	0f 91       	pop	r16
    2bdc:	08 95       	ret

00002bde <twi_init>:
{
  // transmit master read ready signal, with or without ack
  if(ack){
    TWCR = _BV(TWEN) | _BV(TWIE) | _BV(TWINT) | _BV(TWEA);
  }else{
	  TWCR = _BV(TWEN) | _BV(TWIE) | _BV(TWINT);
    2bde:	10 92 fe 05 	sts	0x05FE, r1	; 0x8005fe <twi_state>
    2be2:	81 e0       	ldi	r24, 0x01	; 1
    2be4:	80 93 fc 05 	sts	0x05FC, r24	; 0x8005fc <twi_sendStop>
    2be8:	10 92 fb 05 	sts	0x05FB, r1	; 0x8005fb <twi_inRepStart>
    2bec:	61 e0       	ldi	r22, 0x01	; 1
    2bee:	82 e1       	ldi	r24, 0x12	; 18
    2bf0:	0e 94 1b 1e 	call	0x3c36	; 0x3c36 <digitalWrite>
    2bf4:	61 e0       	ldi	r22, 0x01	; 1
    2bf6:	83 e1       	ldi	r24, 0x13	; 19
    2bf8:	0e 94 1b 1e 	call	0x3c36	; 0x3c36 <digitalWrite>
    2bfc:	e9 eb       	ldi	r30, 0xB9	; 185
    2bfe:	f0 e0       	ldi	r31, 0x00	; 0
    2c00:	80 81       	ld	r24, Z
    2c02:	8e 7f       	andi	r24, 0xFE	; 254
    2c04:	80 83       	st	Z, r24
    2c06:	80 81       	ld	r24, Z
    2c08:	8d 7f       	andi	r24, 0xFD	; 253
    2c0a:	80 83       	st	Z, r24
    2c0c:	88 e4       	ldi	r24, 0x48	; 72
    2c0e:	80 93 b8 00 	sts	0x00B8, r24	; 0x8000b8 <__TEXT_REGION_LENGTH__+0x7e00b8>
    2c12:	85 e4       	ldi	r24, 0x45	; 69
    2c14:	80 93 bc 00 	sts	0x00BC, r24	; 0x8000bc <__TEXT_REGION_LENGTH__+0x7e00bc>
    2c18:	08 95       	ret

00002c1a <twi_writeTo>:
    2c1a:	0f 93       	push	r16
    2c1c:	41 32       	cpi	r20, 0x21	; 33
    2c1e:	08 f0       	brcs	.+2      	; 0x2c22 <twi_writeTo+0x8>
    2c20:	4a c0       	rjmp	.+148    	; 0x2cb6 <twi_writeTo+0x9c>
    2c22:	90 91 fe 05 	lds	r25, 0x05FE	; 0x8005fe <twi_state>
    2c26:	91 11       	cpse	r25, r1
    2c28:	fc cf       	rjmp	.-8      	; 0x2c22 <twi_writeTo+0x8>
    2c2a:	32 e0       	ldi	r19, 0x02	; 2
    2c2c:	30 93 fe 05 	sts	0x05FE, r19	; 0x8005fe <twi_state>
    2c30:	00 93 fc 05 	sts	0x05FC, r16	; 0x8005fc <twi_sendStop>
    2c34:	3f ef       	ldi	r19, 0xFF	; 255
    2c36:	30 93 91 05 	sts	0x0591, r19	; 0x800591 <twi_error>
    2c3a:	10 92 d6 05 	sts	0x05D6, r1	; 0x8005d6 <twi_masterBufferIndex>
    2c3e:	40 93 d5 05 	sts	0x05D5, r20	; 0x8005d5 <twi_masterBufferLength>
    2c42:	56 2f       	mov	r21, r22
    2c44:	a7 ed       	ldi	r26, 0xD7	; 215
    2c46:	b5 e0       	ldi	r27, 0x05	; 5
    2c48:	fb 01       	movw	r30, r22
    2c4a:	3e 2f       	mov	r19, r30
    2c4c:	35 1b       	sub	r19, r21
    2c4e:	34 17       	cp	r19, r20
    2c50:	18 f4       	brcc	.+6      	; 0x2c58 <twi_writeTo+0x3e>
    2c52:	31 91       	ld	r19, Z+
    2c54:	3d 93       	st	X+, r19
    2c56:	f9 cf       	rjmp	.-14     	; 0x2c4a <twi_writeTo+0x30>
    2c58:	10 92 fd 05 	sts	0x05FD, r1	; 0x8005fd <twi_slarw>
    2c5c:	30 91 fd 05 	lds	r19, 0x05FD	; 0x8005fd <twi_slarw>
    2c60:	88 0f       	add	r24, r24
    2c62:	83 2b       	or	r24, r19
    2c64:	80 93 fd 05 	sts	0x05FD, r24	; 0x8005fd <twi_slarw>
    2c68:	80 91 fb 05 	lds	r24, 0x05FB	; 0x8005fb <twi_inRepStart>
    2c6c:	81 30       	cpi	r24, 0x01	; 1
    2c6e:	61 f4       	brne	.+24     	; 0x2c88 <twi_writeTo+0x6e>
    2c70:	10 92 fb 05 	sts	0x05FB, r1	; 0x8005fb <twi_inRepStart>
    2c74:	80 91 fd 05 	lds	r24, 0x05FD	; 0x8005fd <twi_slarw>
    2c78:	80 93 bb 00 	sts	0x00BB, r24	; 0x8000bb <__TEXT_REGION_LENGTH__+0x7e00bb>
    2c7c:	80 91 bc 00 	lds	r24, 0x00BC	; 0x8000bc <__TEXT_REGION_LENGTH__+0x7e00bc>
    2c80:	83 fd       	sbrc	r24, 3
    2c82:	f8 cf       	rjmp	.-16     	; 0x2c74 <twi_writeTo+0x5a>
    2c84:	85 ec       	ldi	r24, 0xC5	; 197
    2c86:	01 c0       	rjmp	.+2      	; 0x2c8a <twi_writeTo+0x70>
    2c88:	85 ee       	ldi	r24, 0xE5	; 229
    2c8a:	80 93 bc 00 	sts	0x00BC, r24	; 0x8000bc <__TEXT_REGION_LENGTH__+0x7e00bc>
    2c8e:	22 23       	and	r18, r18
    2c90:	21 f0       	breq	.+8      	; 0x2c9a <twi_writeTo+0x80>
    2c92:	80 91 fe 05 	lds	r24, 0x05FE	; 0x8005fe <twi_state>
    2c96:	82 30       	cpi	r24, 0x02	; 2
    2c98:	d1 f3       	breq	.-12     	; 0x2c8e <twi_writeTo+0x74>
    2c9a:	80 91 91 05 	lds	r24, 0x0591	; 0x800591 <twi_error>
    2c9e:	8f 3f       	cpi	r24, 0xFF	; 255
    2ca0:	79 f0       	breq	.+30     	; 0x2cc0 <twi_writeTo+0xa6>
    2ca2:	80 91 91 05 	lds	r24, 0x0591	; 0x800591 <twi_error>
    2ca6:	80 32       	cpi	r24, 0x20	; 32
    2ca8:	41 f0       	breq	.+16     	; 0x2cba <twi_writeTo+0xa0>
    2caa:	80 91 91 05 	lds	r24, 0x0591	; 0x800591 <twi_error>
    2cae:	80 33       	cpi	r24, 0x30	; 48
    2cb0:	31 f0       	breq	.+12     	; 0x2cbe <twi_writeTo+0xa4>
    2cb2:	94 e0       	ldi	r25, 0x04	; 4
    2cb4:	05 c0       	rjmp	.+10     	; 0x2cc0 <twi_writeTo+0xa6>
    2cb6:	91 e0       	ldi	r25, 0x01	; 1
    2cb8:	03 c0       	rjmp	.+6      	; 0x2cc0 <twi_writeTo+0xa6>
    2cba:	92 e0       	ldi	r25, 0x02	; 2
    2cbc:	01 c0       	rjmp	.+2      	; 0x2cc0 <twi_writeTo+0xa6>
    2cbe:	93 e0       	ldi	r25, 0x03	; 3
    2cc0:	89 2f       	mov	r24, r25
    2cc2:	0f 91       	pop	r16
    2cc4:	08 95       	ret

00002cc6 <twi_transmit>:
    2cc6:	40 91 b3 05 	lds	r20, 0x05B3	; 0x8005b3 <twi_txBufferLength>
    2cca:	26 2f       	mov	r18, r22
    2ccc:	30 e0       	ldi	r19, 0x00	; 0
    2cce:	24 0f       	add	r18, r20
    2cd0:	31 1d       	adc	r19, r1
    2cd2:	21 32       	cpi	r18, 0x21	; 33
    2cd4:	31 05       	cpc	r19, r1
    2cd6:	dc f4       	brge	.+54     	; 0x2d0e <twi_transmit+0x48>
    2cd8:	20 91 fe 05 	lds	r18, 0x05FE	; 0x8005fe <twi_state>
    2cdc:	24 30       	cpi	r18, 0x04	; 4
    2cde:	c9 f4       	brne	.+50     	; 0x2d12 <twi_transmit+0x4c>
    2ce0:	fc 01       	movw	r30, r24
    2ce2:	80 e0       	ldi	r24, 0x00	; 0
    2ce4:	90 e0       	ldi	r25, 0x00	; 0
    2ce6:	86 17       	cp	r24, r22
    2ce8:	58 f4       	brcc	.+22     	; 0x2d00 <twi_transmit+0x3a>
    2cea:	30 91 b3 05 	lds	r19, 0x05B3	; 0x8005b3 <twi_txBufferLength>
    2cee:	21 91       	ld	r18, Z+
    2cf0:	dc 01       	movw	r26, r24
    2cf2:	ab 54       	subi	r26, 0x4B	; 75
    2cf4:	ba 4f       	sbci	r27, 0xFA	; 250
    2cf6:	a3 0f       	add	r26, r19
    2cf8:	b1 1d       	adc	r27, r1
    2cfa:	2c 93       	st	X, r18
    2cfc:	01 96       	adiw	r24, 0x01	; 1
    2cfe:	f3 cf       	rjmp	.-26     	; 0x2ce6 <twi_transmit+0x20>
    2d00:	80 91 b3 05 	lds	r24, 0x05B3	; 0x8005b3 <twi_txBufferLength>
    2d04:	68 0f       	add	r22, r24
    2d06:	60 93 b3 05 	sts	0x05B3, r22	; 0x8005b3 <twi_txBufferLength>
    2d0a:	80 e0       	ldi	r24, 0x00	; 0
    2d0c:	08 95       	ret
    2d0e:	81 e0       	ldi	r24, 0x01	; 1
    2d10:	08 95       	ret
    2d12:	82 e0       	ldi	r24, 0x02	; 2
    2d14:	08 95       	ret

00002d16 <twi_stop>:
 * Output   none
 */
void twi_stop(void)
{
  // send stop condition
  TWCR = _BV(TWEN) | _BV(TWIE) | _BV(TWEA) | _BV(TWINT) | _BV(TWSTO);
    2d16:	85 ed       	ldi	r24, 0xD5	; 213
    2d18:	80 93 bc 00 	sts	0x00BC, r24	; 0x8000bc <__TEXT_REGION_LENGTH__+0x7e00bc>

  // wait for stop condition to be exectued on bus
  // TWINT is not set after a stop condition!
  while(TWCR & _BV(TWSTO)){
    2d1c:	80 91 bc 00 	lds	r24, 0x00BC	; 0x8000bc <__TEXT_REGION_LENGTH__+0x7e00bc>
    2d20:	84 fd       	sbrc	r24, 4
    2d22:	fc cf       	rjmp	.-8      	; 0x2d1c <twi_stop+0x6>
    continue;
  }

  // update twi state
  twi_state = TWI_READY;
    2d24:	10 92 fe 05 	sts	0x05FE, r1	; 0x8005fe <twi_state>
    2d28:	08 95       	ret

00002d2a <twi_releaseBus>:
 * Output   none
 */
void twi_releaseBus(void)
{
  // release bus
  TWCR = _BV(TWEN) | _BV(TWIE) | _BV(TWEA) | _BV(TWINT);
    2d2a:	85 ec       	ldi	r24, 0xC5	; 197
    2d2c:	80 93 bc 00 	sts	0x00BC, r24	; 0x8000bc <__TEXT_REGION_LENGTH__+0x7e00bc>

  // update twi state
  twi_state = TWI_READY;
    2d30:	10 92 fe 05 	sts	0x05FE, r1	; 0x8005fe <twi_state>
    2d34:	08 95       	ret

00002d36 <__vector_24>:
}

ISR(TWI_vect)
{
    2d36:	1f 92       	push	r1
    2d38:	0f 92       	push	r0
    2d3a:	0f b6       	in	r0, 0x3f	; 63
    2d3c:	0f 92       	push	r0
    2d3e:	11 24       	eor	r1, r1
    2d40:	2f 93       	push	r18
    2d42:	3f 93       	push	r19
    2d44:	4f 93       	push	r20
    2d46:	5f 93       	push	r21
    2d48:	6f 93       	push	r22
    2d4a:	7f 93       	push	r23
    2d4c:	8f 93       	push	r24
    2d4e:	9f 93       	push	r25
    2d50:	af 93       	push	r26
    2d52:	bf 93       	push	r27
    2d54:	ef 93       	push	r30
    2d56:	ff 93       	push	r31
  switch(TW_STATUS){
    2d58:	80 91 b9 00 	lds	r24, 0x00B9	; 0x8000b9 <__TEXT_REGION_LENGTH__+0x7e00b9>
    2d5c:	88 7f       	andi	r24, 0xF8	; 248
    2d5e:	80 36       	cpi	r24, 0x60	; 96
    2d60:	09 f4       	brne	.+2      	; 0x2d64 <__vector_24+0x2e>
    2d62:	9e c0       	rjmp	.+316    	; 0x2ea0 <__vector_24+0x16a>
    2d64:	78 f5       	brcc	.+94     	; 0x2dc4 <__vector_24+0x8e>
    2d66:	88 32       	cpi	r24, 0x28	; 40
    2d68:	09 f4       	brne	.+2      	; 0x2d6c <__vector_24+0x36>
    2d6a:	5d c0       	rjmp	.+186    	; 0x2e26 <__vector_24+0xf0>
    2d6c:	90 f4       	brcc	.+36     	; 0x2d92 <__vector_24+0x5c>
    2d6e:	80 31       	cpi	r24, 0x10	; 16
    2d70:	09 f4       	brne	.+2      	; 0x2d74 <__vector_24+0x3e>
    2d72:	56 c0       	rjmp	.+172    	; 0x2e20 <__vector_24+0xea>
    2d74:	38 f4       	brcc	.+14     	; 0x2d84 <__vector_24+0x4e>
    2d76:	88 23       	and	r24, r24
    2d78:	09 f4       	brne	.+2      	; 0x2d7c <__vector_24+0x46>
    2d7a:	f5 c0       	rjmp	.+490    	; 0x2f66 <__vector_24+0x230>
    2d7c:	88 30       	cpi	r24, 0x08	; 8
    2d7e:	09 f4       	brne	.+2      	; 0x2d82 <__vector_24+0x4c>
    2d80:	4f c0       	rjmp	.+158    	; 0x2e20 <__vector_24+0xea>
    2d82:	f5 c0       	rjmp	.+490    	; 0x2f6e <__vector_24+0x238>
    2d84:	88 31       	cpi	r24, 0x18	; 24
    2d86:	09 f4       	brne	.+2      	; 0x2d8a <__vector_24+0x54>
    2d88:	4e c0       	rjmp	.+156    	; 0x2e26 <__vector_24+0xf0>
    2d8a:	80 32       	cpi	r24, 0x20	; 32
    2d8c:	09 f4       	brne	.+2      	; 0x2d90 <__vector_24+0x5a>
    2d8e:	5f c0       	rjmp	.+190    	; 0x2e4e <__vector_24+0x118>
    2d90:	ee c0       	rjmp	.+476    	; 0x2f6e <__vector_24+0x238>
    2d92:	80 34       	cpi	r24, 0x40	; 64
    2d94:	09 f4       	brne	.+2      	; 0x2d98 <__vector_24+0x62>
    2d96:	6a c0       	rjmp	.+212    	; 0x2e6c <__vector_24+0x136>
    2d98:	58 f4       	brcc	.+22     	; 0x2db0 <__vector_24+0x7a>
    2d9a:	80 33       	cpi	r24, 0x30	; 48
    2d9c:	09 f4       	brne	.+2      	; 0x2da0 <__vector_24+0x6a>
    2d9e:	57 c0       	rjmp	.+174    	; 0x2e4e <__vector_24+0x118>
    2da0:	88 33       	cpi	r24, 0x38	; 56
    2da2:	09 f0       	breq	.+2      	; 0x2da6 <__vector_24+0x70>
    2da4:	e4 c0       	rjmp	.+456    	; 0x2f6e <__vector_24+0x238>
    case TW_MT_DATA_NACK: // data sent, nack received
      twi_error = TW_MT_DATA_NACK;
      twi_stop();
      break;
    case TW_MT_ARB_LOST: // lost bus arbitration
      twi_error = TW_MT_ARB_LOST;
    2da6:	80 93 91 05 	sts	0x0591, r24	; 0x800591 <twi_error>
      twi_releaseBus();
    2daa:	0e 94 95 16 	call	0x2d2a	; 0x2d2a <twi_releaseBus>
      break;
    2dae:	df c0       	rjmp	.+446    	; 0x2f6e <__vector_24+0x238>
  twi_state = TWI_READY;
}

ISR(TWI_vect)
{
  switch(TW_STATUS){
    2db0:	80 35       	cpi	r24, 0x50	; 80
    2db2:	09 f4       	brne	.+2      	; 0x2db6 <__vector_24+0x80>
    2db4:	4f c0       	rjmp	.+158    	; 0x2e54 <__vector_24+0x11e>
    2db6:	88 35       	cpi	r24, 0x58	; 88
    2db8:	09 f4       	brne	.+2      	; 0x2dbc <__vector_24+0x86>
    2dba:	5d c0       	rjmp	.+186    	; 0x2e76 <__vector_24+0x140>
    2dbc:	88 34       	cpi	r24, 0x48	; 72
    2dbe:	09 f0       	breq	.+2      	; 0x2dc2 <__vector_24+0x8c>
    2dc0:	d6 c0       	rjmp	.+428    	; 0x2f6e <__vector_24+0x238>
    2dc2:	d3 c0       	rjmp	.+422    	; 0x2f6a <__vector_24+0x234>
    2dc4:	88 39       	cpi	r24, 0x98	; 152
    2dc6:	09 f4       	brne	.+2      	; 0x2dca <__vector_24+0x94>
    2dc8:	c4 c0       	rjmp	.+392    	; 0x2f52 <__vector_24+0x21c>
    2dca:	a8 f4       	brcc	.+42     	; 0x2df6 <__vector_24+0xc0>
    2dcc:	88 37       	cpi	r24, 0x78	; 120
    2dce:	09 f4       	brne	.+2      	; 0x2dd2 <__vector_24+0x9c>
    2dd0:	67 c0       	rjmp	.+206    	; 0x2ea0 <__vector_24+0x16a>
    2dd2:	38 f4       	brcc	.+14     	; 0x2de2 <__vector_24+0xac>
    2dd4:	88 36       	cpi	r24, 0x68	; 104
    2dd6:	09 f4       	brne	.+2      	; 0x2dda <__vector_24+0xa4>
    2dd8:	63 c0       	rjmp	.+198    	; 0x2ea0 <__vector_24+0x16a>
    2dda:	80 37       	cpi	r24, 0x70	; 112
    2ddc:	09 f4       	brne	.+2      	; 0x2de0 <__vector_24+0xaa>
    2dde:	60 c0       	rjmp	.+192    	; 0x2ea0 <__vector_24+0x16a>
    2de0:	c6 c0       	rjmp	.+396    	; 0x2f6e <__vector_24+0x238>
    2de2:	88 38       	cpi	r24, 0x88	; 136
    2de4:	09 f4       	brne	.+2      	; 0x2de8 <__vector_24+0xb2>
    2de6:	b5 c0       	rjmp	.+362    	; 0x2f52 <__vector_24+0x21c>
    2de8:	80 39       	cpi	r24, 0x90	; 144
    2dea:	09 f4       	brne	.+2      	; 0x2dee <__vector_24+0xb8>
    2dec:	5f c0       	rjmp	.+190    	; 0x2eac <__vector_24+0x176>
    2dee:	80 38       	cpi	r24, 0x80	; 128
    2df0:	09 f0       	breq	.+2      	; 0x2df4 <__vector_24+0xbe>
    2df2:	bd c0       	rjmp	.+378    	; 0x2f6e <__vector_24+0x238>
    2df4:	5b c0       	rjmp	.+182    	; 0x2eac <__vector_24+0x176>
    2df6:	80 3b       	cpi	r24, 0xB0	; 176
    2df8:	09 f4       	brne	.+2      	; 0x2dfc <__vector_24+0xc6>
    2dfa:	83 c0       	rjmp	.+262    	; 0x2f02 <__vector_24+0x1cc>
    2dfc:	38 f4       	brcc	.+14     	; 0x2e0c <__vector_24+0xd6>
    2dfe:	80 3a       	cpi	r24, 0xA0	; 160
    2e00:	09 f4       	brne	.+2      	; 0x2e04 <__vector_24+0xce>
    2e02:	66 c0       	rjmp	.+204    	; 0x2ed0 <__vector_24+0x19a>
    2e04:	88 3a       	cpi	r24, 0xA8	; 168
    2e06:	09 f4       	brne	.+2      	; 0x2e0a <__vector_24+0xd4>
    2e08:	7c c0       	rjmp	.+248    	; 0x2f02 <__vector_24+0x1cc>
    2e0a:	b1 c0       	rjmp	.+354    	; 0x2f6e <__vector_24+0x238>
    2e0c:	80 3c       	cpi	r24, 0xC0	; 192
    2e0e:	09 f4       	brne	.+2      	; 0x2e12 <__vector_24+0xdc>
    2e10:	a4 c0       	rjmp	.+328    	; 0x2f5a <__vector_24+0x224>
    2e12:	88 3c       	cpi	r24, 0xC8	; 200
    2e14:	09 f4       	brne	.+2      	; 0x2e18 <__vector_24+0xe2>
    2e16:	a1 c0       	rjmp	.+322    	; 0x2f5a <__vector_24+0x224>
    2e18:	88 3b       	cpi	r24, 0xB8	; 184
    2e1a:	09 f4       	brne	.+2      	; 0x2e1e <__vector_24+0xe8>
    2e1c:	87 c0       	rjmp	.+270    	; 0x2f2c <__vector_24+0x1f6>
    2e1e:	a7 c0       	rjmp	.+334    	; 0x2f6e <__vector_24+0x238>
    // All Master
    case TW_START:     // sent start condition
    case TW_REP_START: // sent repeated start condition
      // copy device address and r/w bit to output register and ack
      TWDR = twi_slarw;
    2e20:	80 91 fd 05 	lds	r24, 0x05FD	; 0x8005fd <twi_slarw>
    2e24:	10 c0       	rjmp	.+32     	; 0x2e46 <__vector_24+0x110>

    // Master Transmitter
    case TW_MT_SLA_ACK:  // slave receiver acked address
    case TW_MT_DATA_ACK: // slave receiver acked data
      // if there is data to send, send it, otherwise stop 
      if(twi_masterBufferIndex < twi_masterBufferLength){
    2e26:	90 91 d6 05 	lds	r25, 0x05D6	; 0x8005d6 <twi_masterBufferIndex>
    2e2a:	80 91 d5 05 	lds	r24, 0x05D5	; 0x8005d5 <twi_masterBufferLength>
    2e2e:	98 17       	cp	r25, r24
    2e30:	70 f5       	brcc	.+92     	; 0x2e8e <__vector_24+0x158>
        // copy data to output register and ack
        TWDR = twi_masterBuffer[twi_masterBufferIndex++];
    2e32:	e0 91 d6 05 	lds	r30, 0x05D6	; 0x8005d6 <twi_masterBufferIndex>
    2e36:	81 e0       	ldi	r24, 0x01	; 1
    2e38:	8e 0f       	add	r24, r30
    2e3a:	80 93 d6 05 	sts	0x05D6, r24	; 0x8005d6 <twi_masterBufferIndex>
    2e3e:	f0 e0       	ldi	r31, 0x00	; 0
    2e40:	e9 52       	subi	r30, 0x29	; 41
    2e42:	fa 4f       	sbci	r31, 0xFA	; 250
    2e44:	80 81       	ld	r24, Z
    2e46:	80 93 bb 00 	sts	0x00BB, r24	; 0x8000bb <__TEXT_REGION_LENGTH__+0x7e00bb>
 */
void twi_reply(uint8_t ack)
{
  // transmit master read ready signal, with or without ack
  if(ack){
    TWCR = _BV(TWEN) | _BV(TWIE) | _BV(TWINT) | _BV(TWEA);
    2e4a:	85 ec       	ldi	r24, 0xC5	; 197
    2e4c:	83 c0       	rjmp	.+262    	; 0x2f54 <__vector_24+0x21e>
    case TW_MT_SLA_NACK:  // address sent, nack received
      twi_error = TW_MT_SLA_NACK;
      twi_stop();
      break;
    case TW_MT_DATA_NACK: // data sent, nack received
      twi_error = TW_MT_DATA_NACK;
    2e4e:	80 93 91 05 	sts	0x0591, r24	; 0x800591 <twi_error>
    2e52:	8b c0       	rjmp	.+278    	; 0x2f6a <__vector_24+0x234>
      break;

    // Master Receiver
    case TW_MR_DATA_ACK: // data received, ack sent
      // put byte into buffer
      twi_masterBuffer[twi_masterBufferIndex++] = TWDR;
    2e54:	e0 91 d6 05 	lds	r30, 0x05D6	; 0x8005d6 <twi_masterBufferIndex>
    2e58:	81 e0       	ldi	r24, 0x01	; 1
    2e5a:	8e 0f       	add	r24, r30
    2e5c:	80 93 d6 05 	sts	0x05D6, r24	; 0x8005d6 <twi_masterBufferIndex>
    2e60:	80 91 bb 00 	lds	r24, 0x00BB	; 0x8000bb <__TEXT_REGION_LENGTH__+0x7e00bb>
    2e64:	f0 e0       	ldi	r31, 0x00	; 0
    2e66:	e9 52       	subi	r30, 0x29	; 41
    2e68:	fa 4f       	sbci	r31, 0xFA	; 250
    2e6a:	80 83       	st	Z, r24
    case TW_MR_SLA_ACK:  // address sent, ack received
      // ack if more bytes are expected, otherwise nack
      if(twi_masterBufferIndex < twi_masterBufferLength){
    2e6c:	90 91 d6 05 	lds	r25, 0x05D6	; 0x8005d6 <twi_masterBufferIndex>
    2e70:	80 91 d5 05 	lds	r24, 0x05D5	; 0x8005d5 <twi_masterBufferLength>
    2e74:	6b c0       	rjmp	.+214    	; 0x2f4c <__vector_24+0x216>
        twi_reply(0);
      }
      break;
    case TW_MR_DATA_NACK: // data received, nack sent
      // put final byte into buffer
      twi_masterBuffer[twi_masterBufferIndex++] = TWDR;
    2e76:	e0 91 d6 05 	lds	r30, 0x05D6	; 0x8005d6 <twi_masterBufferIndex>
    2e7a:	81 e0       	ldi	r24, 0x01	; 1
    2e7c:	8e 0f       	add	r24, r30
    2e7e:	80 93 d6 05 	sts	0x05D6, r24	; 0x8005d6 <twi_masterBufferIndex>
    2e82:	80 91 bb 00 	lds	r24, 0x00BB	; 0x8000bb <__TEXT_REGION_LENGTH__+0x7e00bb>
    2e86:	f0 e0       	ldi	r31, 0x00	; 0
    2e88:	e9 52       	subi	r30, 0x29	; 41
    2e8a:	fa 4f       	sbci	r31, 0xFA	; 250
    2e8c:	80 83       	st	Z, r24
	if (twi_sendStop)
    2e8e:	80 91 fc 05 	lds	r24, 0x05FC	; 0x8005fc <twi_sendStop>
    2e92:	81 11       	cpse	r24, r1
    2e94:	6a c0       	rjmp	.+212    	; 0x2f6a <__vector_24+0x234>
          twi_stop();
	else {
	  twi_inRepStart = true;	// we're gonna send the START
    2e96:	81 e0       	ldi	r24, 0x01	; 1
    2e98:	80 93 fb 05 	sts	0x05FB, r24	; 0x8005fb <twi_inRepStart>
	  // don't enable the interrupt. We'll generate the start, but we 
	  // avoid handling the interrupt until we're in the next transaction,
	  // at the point where we would normally issue the start.
	  TWCR = _BV(TWINT) | _BV(TWSTA)| _BV(TWEN) ;
    2e9c:	84 ea       	ldi	r24, 0xA4	; 164
    2e9e:	5e c0       	rjmp	.+188    	; 0x2f5c <__vector_24+0x226>
    case TW_SR_SLA_ACK:   // addressed, returned ack
    case TW_SR_GCALL_ACK: // addressed generally, returned ack
    case TW_SR_ARB_LOST_SLA_ACK:   // lost arbitration, returned ack
    case TW_SR_ARB_LOST_GCALL_ACK: // lost arbitration, returned ack
      // enter slave receiver mode
      twi_state = TWI_SRX;
    2ea0:	83 e0       	ldi	r24, 0x03	; 3
    2ea2:	80 93 fe 05 	sts	0x05FE, r24	; 0x8005fe <twi_state>
      // indicate that rx buffer can be overwritten and ack
      twi_rxBufferIndex = 0;
    2ea6:	10 92 92 05 	sts	0x0592, r1	; 0x800592 <twi_rxBufferIndex>
    2eaa:	cf cf       	rjmp	.-98     	; 0x2e4a <__vector_24+0x114>
      twi_reply(1);
      break;
    case TW_SR_DATA_ACK:       // data received, returned ack
    case TW_SR_GCALL_DATA_ACK: // data received generally, returned ack
      // if there is still room in the rx buffer
      if(twi_rxBufferIndex < TWI_BUFFER_LENGTH){
    2eac:	80 91 92 05 	lds	r24, 0x0592	; 0x800592 <twi_rxBufferIndex>
    2eb0:	80 32       	cpi	r24, 0x20	; 32
    2eb2:	08 f0       	brcs	.+2      	; 0x2eb6 <__vector_24+0x180>
    2eb4:	4e c0       	rjmp	.+156    	; 0x2f52 <__vector_24+0x21c>
        // put byte in buffer and ack
        twi_rxBuffer[twi_rxBufferIndex++] = TWDR;
    2eb6:	e0 91 92 05 	lds	r30, 0x0592	; 0x800592 <twi_rxBufferIndex>
    2eba:	81 e0       	ldi	r24, 0x01	; 1
    2ebc:	8e 0f       	add	r24, r30
    2ebe:	80 93 92 05 	sts	0x0592, r24	; 0x800592 <twi_rxBufferIndex>
    2ec2:	80 91 bb 00 	lds	r24, 0x00BB	; 0x8000bb <__TEXT_REGION_LENGTH__+0x7e00bb>
    2ec6:	f0 e0       	ldi	r31, 0x00	; 0
    2ec8:	ed 56       	subi	r30, 0x6D	; 109
    2eca:	fa 4f       	sbci	r31, 0xFA	; 250
    2ecc:	80 83       	st	Z, r24
    2ece:	bd cf       	rjmp	.-134    	; 0x2e4a <__vector_24+0x114>
        twi_reply(0);
      }
      break;
    case TW_SR_STOP: // stop or repeated start condition received
      // ack future responses and leave slave receiver state
      twi_releaseBus();
    2ed0:	0e 94 95 16 	call	0x2d2a	; 0x2d2a <twi_releaseBus>
      // put a null char after data if there's room
      if(twi_rxBufferIndex < TWI_BUFFER_LENGTH){
    2ed4:	80 91 92 05 	lds	r24, 0x0592	; 0x800592 <twi_rxBufferIndex>
    2ed8:	80 32       	cpi	r24, 0x20	; 32
    2eda:	30 f4       	brcc	.+12     	; 0x2ee8 <__vector_24+0x1b2>
        twi_rxBuffer[twi_rxBufferIndex] = '\0';
    2edc:	e0 91 92 05 	lds	r30, 0x0592	; 0x800592 <twi_rxBufferIndex>
    2ee0:	f0 e0       	ldi	r31, 0x00	; 0
    2ee2:	ed 56       	subi	r30, 0x6D	; 109
    2ee4:	fa 4f       	sbci	r31, 0xFA	; 250
    2ee6:	10 82       	st	Z, r1
      }
      // callback to user defined callback
      twi_onSlaveReceive(twi_rxBuffer, twi_rxBufferIndex);
    2ee8:	60 91 92 05 	lds	r22, 0x0592	; 0x800592 <twi_rxBufferIndex>
    2eec:	70 e0       	ldi	r23, 0x00	; 0
    2eee:	e0 91 f7 05 	lds	r30, 0x05F7	; 0x8005f7 <twi_onSlaveReceive>
    2ef2:	f0 91 f8 05 	lds	r31, 0x05F8	; 0x8005f8 <twi_onSlaveReceive+0x1>
    2ef6:	83 e9       	ldi	r24, 0x93	; 147
    2ef8:	95 e0       	ldi	r25, 0x05	; 5
    2efa:	09 95       	icall
      // since we submit rx buffer to "wire" library, we can reset it
      twi_rxBufferIndex = 0;
    2efc:	10 92 92 05 	sts	0x0592, r1	; 0x800592 <twi_rxBufferIndex>
      break;
    2f00:	36 c0       	rjmp	.+108    	; 0x2f6e <__vector_24+0x238>
    
    // Slave Transmitter
    case TW_ST_SLA_ACK:          // addressed, returned ack
    case TW_ST_ARB_LOST_SLA_ACK: // arbitration lost, returned ack
      // enter slave transmitter mode
      twi_state = TWI_STX;
    2f02:	84 e0       	ldi	r24, 0x04	; 4
    2f04:	80 93 fe 05 	sts	0x05FE, r24	; 0x8005fe <twi_state>
      // ready the tx buffer index for iteration
      twi_txBufferIndex = 0;
    2f08:	10 92 b4 05 	sts	0x05B4, r1	; 0x8005b4 <twi_txBufferIndex>
      // set tx buffer length to be zero, to verify if user changes it
      twi_txBufferLength = 0;
    2f0c:	10 92 b3 05 	sts	0x05B3, r1	; 0x8005b3 <twi_txBufferLength>
      // request for txBuffer to be filled and length to be set
      // note: user must call twi_transmit(bytes, length) to do this
      twi_onSlaveTransmit();
    2f10:	e0 91 f9 05 	lds	r30, 0x05F9	; 0x8005f9 <twi_onSlaveTransmit>
    2f14:	f0 91 fa 05 	lds	r31, 0x05FA	; 0x8005fa <twi_onSlaveTransmit+0x1>
    2f18:	09 95       	icall
      // if they didn't change buffer & length, initialize it
      if(0 == twi_txBufferLength){
    2f1a:	80 91 b3 05 	lds	r24, 0x05B3	; 0x8005b3 <twi_txBufferLength>
    2f1e:	81 11       	cpse	r24, r1
    2f20:	05 c0       	rjmp	.+10     	; 0x2f2c <__vector_24+0x1f6>
        twi_txBufferLength = 1;
    2f22:	81 e0       	ldi	r24, 0x01	; 1
    2f24:	80 93 b3 05 	sts	0x05B3, r24	; 0x8005b3 <twi_txBufferLength>
        twi_txBuffer[0] = 0x00;
    2f28:	10 92 b5 05 	sts	0x05B5, r1	; 0x8005b5 <twi_txBuffer>
      }
      // transmit first byte from buffer, fall
    case TW_ST_DATA_ACK: // byte sent, ack returned
      // copy data to output register
      TWDR = twi_txBuffer[twi_txBufferIndex++];
    2f2c:	e0 91 b4 05 	lds	r30, 0x05B4	; 0x8005b4 <twi_txBufferIndex>
    2f30:	81 e0       	ldi	r24, 0x01	; 1
    2f32:	8e 0f       	add	r24, r30
    2f34:	80 93 b4 05 	sts	0x05B4, r24	; 0x8005b4 <twi_txBufferIndex>
    2f38:	f0 e0       	ldi	r31, 0x00	; 0
    2f3a:	eb 54       	subi	r30, 0x4B	; 75
    2f3c:	fa 4f       	sbci	r31, 0xFA	; 250
    2f3e:	80 81       	ld	r24, Z
    2f40:	80 93 bb 00 	sts	0x00BB, r24	; 0x8000bb <__TEXT_REGION_LENGTH__+0x7e00bb>
      // if there is more to send, ack, otherwise nack
      if(twi_txBufferIndex < twi_txBufferLength){
    2f44:	90 91 b4 05 	lds	r25, 0x05B4	; 0x8005b4 <twi_txBufferIndex>
    2f48:	80 91 b3 05 	lds	r24, 0x05B3	; 0x8005b3 <twi_txBufferLength>
    2f4c:	98 17       	cp	r25, r24
    2f4e:	08 f4       	brcc	.+2      	; 0x2f52 <__vector_24+0x21c>
    2f50:	7c cf       	rjmp	.-264    	; 0x2e4a <__vector_24+0x114>
{
  // transmit master read ready signal, with or without ack
  if(ack){
    TWCR = _BV(TWEN) | _BV(TWIE) | _BV(TWINT) | _BV(TWEA);
  }else{
	  TWCR = _BV(TWEN) | _BV(TWIE) | _BV(TWINT);
    2f52:	85 e8       	ldi	r24, 0x85	; 133
    2f54:	80 93 bc 00 	sts	0x00BC, r24	; 0x8000bc <__TEXT_REGION_LENGTH__+0x7e00bc>
    2f58:	0a c0       	rjmp	.+20     	; 0x2f6e <__vector_24+0x238>
 */
void twi_reply(uint8_t ack)
{
  // transmit master read ready signal, with or without ack
  if(ack){
    TWCR = _BV(TWEN) | _BV(TWIE) | _BV(TWINT) | _BV(TWEA);
    2f5a:	85 ec       	ldi	r24, 0xC5	; 197
    2f5c:	80 93 bc 00 	sts	0x00BC, r24	; 0x8000bc <__TEXT_REGION_LENGTH__+0x7e00bc>
    case TW_ST_DATA_NACK: // received nack, we are done 
    case TW_ST_LAST_DATA: // received ack, but we are done already!
      // ack future responses
      twi_reply(1);
      // leave slave receiver state
      twi_state = TWI_READY;
    2f60:	10 92 fe 05 	sts	0x05FE, r1	; 0x8005fe <twi_state>
      break;
    2f64:	04 c0       	rjmp	.+8      	; 0x2f6e <__vector_24+0x238>

    // All
    case TW_NO_INFO:   // no state information
      break;
    case TW_BUS_ERROR: // bus error, illegal stop/start
      twi_error = TW_BUS_ERROR;
    2f66:	10 92 91 05 	sts	0x0591, r1	; 0x800591 <twi_error>
      twi_stop();
    2f6a:	0e 94 8b 16 	call	0x2d16	; 0x2d16 <twi_stop>
      break;
  }
}
    2f6e:	ff 91       	pop	r31
    2f70:	ef 91       	pop	r30
    2f72:	bf 91       	pop	r27
    2f74:	af 91       	pop	r26
    2f76:	9f 91       	pop	r25
    2f78:	8f 91       	pop	r24
    2f7a:	7f 91       	pop	r23
    2f7c:	6f 91       	pop	r22
    2f7e:	5f 91       	pop	r21
    2f80:	4f 91       	pop	r20
    2f82:	3f 91       	pop	r19
    2f84:	2f 91       	pop	r18
    2f86:	0f 90       	pop	r0
    2f88:	0f be       	out	0x3f, r0	; 63
    2f8a:	0f 90       	pop	r0
    2f8c:	1f 90       	pop	r1
    2f8e:	18 95       	reti

00002f90 <_ZN7TwoWire9availableEv>:
}

// sets function called on slave read
void TwoWire::onRequest( void (*function)(void) )
{
  user_onRequest = function;
    2f90:	80 91 2f 06 	lds	r24, 0x062F	; 0x80062f <_ZN7TwoWire14rxBufferLengthE>
    2f94:	90 e0       	ldi	r25, 0x00	; 0
    2f96:	20 91 30 06 	lds	r18, 0x0630	; 0x800630 <_ZN7TwoWire13rxBufferIndexE>
    2f9a:	82 1b       	sub	r24, r18
    2f9c:	91 09       	sbc	r25, r1
    2f9e:	08 95       	ret

00002fa0 <_ZN7TwoWire4readEv>:
    2fa0:	90 91 30 06 	lds	r25, 0x0630	; 0x800630 <_ZN7TwoWire13rxBufferIndexE>
    2fa4:	80 91 2f 06 	lds	r24, 0x062F	; 0x80062f <_ZN7TwoWire14rxBufferLengthE>
    2fa8:	98 17       	cp	r25, r24
    2faa:	50 f4       	brcc	.+20     	; 0x2fc0 <_ZN7TwoWire4readEv+0x20>
    2fac:	e9 2f       	mov	r30, r25
    2fae:	f0 e0       	ldi	r31, 0x00	; 0
    2fb0:	ef 5c       	subi	r30, 0xCF	; 207
    2fb2:	f9 4f       	sbci	r31, 0xF9	; 249
    2fb4:	20 81       	ld	r18, Z
    2fb6:	30 e0       	ldi	r19, 0x00	; 0
    2fb8:	9f 5f       	subi	r25, 0xFF	; 255
    2fba:	90 93 30 06 	sts	0x0630, r25	; 0x800630 <_ZN7TwoWire13rxBufferIndexE>
    2fbe:	02 c0       	rjmp	.+4      	; 0x2fc4 <_ZN7TwoWire4readEv+0x24>
    2fc0:	2f ef       	ldi	r18, 0xFF	; 255
    2fc2:	3f ef       	ldi	r19, 0xFF	; 255
    2fc4:	c9 01       	movw	r24, r18
    2fc6:	08 95       	ret

00002fc8 <_ZN7TwoWire4peekEv>:
    2fc8:	e0 91 30 06 	lds	r30, 0x0630	; 0x800630 <_ZN7TwoWire13rxBufferIndexE>
    2fcc:	80 91 2f 06 	lds	r24, 0x062F	; 0x80062f <_ZN7TwoWire14rxBufferLengthE>
    2fd0:	e8 17       	cp	r30, r24
    2fd2:	30 f4       	brcc	.+12     	; 0x2fe0 <_ZN7TwoWire4peekEv+0x18>
    2fd4:	f0 e0       	ldi	r31, 0x00	; 0
    2fd6:	ef 5c       	subi	r30, 0xCF	; 207
    2fd8:	f9 4f       	sbci	r31, 0xF9	; 249
    2fda:	80 81       	ld	r24, Z
    2fdc:	90 e0       	ldi	r25, 0x00	; 0
    2fde:	08 95       	ret
    2fe0:	8f ef       	ldi	r24, 0xFF	; 255
    2fe2:	9f ef       	ldi	r25, 0xFF	; 255
    2fe4:	08 95       	ret

00002fe6 <_ZN7TwoWire5flushEv>:
    2fe6:	08 95       	ret

00002fe8 <_ZN7TwoWire5writeEPKhj>:
    2fe8:	cf 92       	push	r12
    2fea:	df 92       	push	r13
    2fec:	ef 92       	push	r14
    2fee:	ff 92       	push	r15
    2ff0:	0f 93       	push	r16
    2ff2:	1f 93       	push	r17
    2ff4:	cf 93       	push	r28
    2ff6:	df 93       	push	r29
    2ff8:	7c 01       	movw	r14, r24
    2ffa:	cb 01       	movw	r24, r22
    2ffc:	8a 01       	movw	r16, r20
    2ffe:	20 91 0b 06 	lds	r18, 0x060B	; 0x80060b <_ZN7TwoWire12transmittingE>
    3002:	22 23       	and	r18, r18
    3004:	89 f0       	breq	.+34     	; 0x3028 <_ZN7TwoWire5writeEPKhj+0x40>
    3006:	eb 01       	movw	r28, r22
    3008:	6b 01       	movw	r12, r22
    300a:	c4 0e       	add	r12, r20
    300c:	d5 1e       	adc	r13, r21
    300e:	cc 15       	cp	r28, r12
    3010:	dd 05       	cpc	r29, r13
    3012:	69 f0       	breq	.+26     	; 0x302e <_ZN7TwoWire5writeEPKhj+0x46>
    3014:	69 91       	ld	r22, Y+
    3016:	d7 01       	movw	r26, r14
    3018:	ed 91       	ld	r30, X+
    301a:	fc 91       	ld	r31, X
    301c:	01 90       	ld	r0, Z+
    301e:	f0 81       	ld	r31, Z
    3020:	e0 2d       	mov	r30, r0
    3022:	c7 01       	movw	r24, r14
    3024:	09 95       	icall
    3026:	f3 cf       	rjmp	.-26     	; 0x300e <_ZN7TwoWire5writeEPKhj+0x26>
    3028:	64 2f       	mov	r22, r20
    302a:	0e 94 63 16 	call	0x2cc6	; 0x2cc6 <twi_transmit>
    302e:	c8 01       	movw	r24, r16
    3030:	df 91       	pop	r29
    3032:	cf 91       	pop	r28
    3034:	1f 91       	pop	r17
    3036:	0f 91       	pop	r16
    3038:	ff 90       	pop	r15
    303a:	ef 90       	pop	r14
    303c:	df 90       	pop	r13
    303e:	cf 90       	pop	r12
    3040:	08 95       	ret

00003042 <_ZN7TwoWire5writeEh>:
    3042:	cf 93       	push	r28
    3044:	df 93       	push	r29
    3046:	1f 92       	push	r1
    3048:	cd b7       	in	r28, 0x3d	; 61
    304a:	de b7       	in	r29, 0x3e	; 62
    304c:	69 83       	std	Y+1, r22	; 0x01
    304e:	20 91 0b 06 	lds	r18, 0x060B	; 0x80060b <_ZN7TwoWire12transmittingE>
    3052:	22 23       	and	r18, r18
    3054:	d1 f0       	breq	.+52     	; 0x308a <_ZN7TwoWire5writeEh+0x48>
    3056:	20 91 0c 06 	lds	r18, 0x060C	; 0x80060c <_ZN7TwoWire14txBufferLengthE>
    305a:	20 32       	cpi	r18, 0x20	; 32
    305c:	40 f0       	brcs	.+16     	; 0x306e <_ZN7TwoWire5writeEh+0x2c>
    305e:	21 e0       	ldi	r18, 0x01	; 1
    3060:	30 e0       	ldi	r19, 0x00	; 0
    3062:	fc 01       	movw	r30, r24
    3064:	33 83       	std	Z+3, r19	; 0x03
    3066:	22 83       	std	Z+2, r18	; 0x02
    3068:	80 e0       	ldi	r24, 0x00	; 0
    306a:	90 e0       	ldi	r25, 0x00	; 0
    306c:	15 c0       	rjmp	.+42     	; 0x3098 <_ZN7TwoWire5writeEh+0x56>
    306e:	80 91 0d 06 	lds	r24, 0x060D	; 0x80060d <_ZN7TwoWire13txBufferIndexE>
    3072:	e8 2f       	mov	r30, r24
    3074:	f0 e0       	ldi	r31, 0x00	; 0
    3076:	e2 5f       	subi	r30, 0xF2	; 242
    3078:	f9 4f       	sbci	r31, 0xF9	; 249
    307a:	99 81       	ldd	r25, Y+1	; 0x01
    307c:	90 83       	st	Z, r25
    307e:	8f 5f       	subi	r24, 0xFF	; 255
    3080:	80 93 0d 06 	sts	0x060D, r24	; 0x80060d <_ZN7TwoWire13txBufferIndexE>
    3084:	80 93 0c 06 	sts	0x060C, r24	; 0x80060c <_ZN7TwoWire14txBufferLengthE>
    3088:	05 c0       	rjmp	.+10     	; 0x3094 <_ZN7TwoWire5writeEh+0x52>
    308a:	61 e0       	ldi	r22, 0x01	; 1
    308c:	ce 01       	movw	r24, r28
    308e:	01 96       	adiw	r24, 0x01	; 1
    3090:	0e 94 63 16 	call	0x2cc6	; 0x2cc6 <twi_transmit>
    3094:	81 e0       	ldi	r24, 0x01	; 1
    3096:	90 e0       	ldi	r25, 0x00	; 0
    3098:	0f 90       	pop	r0
    309a:	df 91       	pop	r29
    309c:	cf 91       	pop	r28
    309e:	08 95       	ret

000030a0 <_ZN7TwoWireC1Ev>:
    30a0:	fc 01       	movw	r30, r24
    30a2:	13 82       	std	Z+3, r1	; 0x03
    30a4:	12 82       	std	Z+2, r1	; 0x02
    30a6:	88 ee       	ldi	r24, 0xE8	; 232
    30a8:	93 e0       	ldi	r25, 0x03	; 3
    30aa:	a0 e0       	ldi	r26, 0x00	; 0
    30ac:	b0 e0       	ldi	r27, 0x00	; 0
    30ae:	84 83       	std	Z+4, r24	; 0x04
    30b0:	95 83       	std	Z+5, r25	; 0x05
    30b2:	a6 83       	std	Z+6, r26	; 0x06
    30b4:	b7 83       	std	Z+7, r27	; 0x07
    30b6:	86 e8       	ldi	r24, 0x86	; 134
    30b8:	92 e0       	ldi	r25, 0x02	; 2
    30ba:	91 83       	std	Z+1, r25	; 0x01
    30bc:	80 83       	st	Z, r24
    30be:	08 95       	ret

000030c0 <_ZN7TwoWire5beginEv>:
    30c0:	10 92 30 06 	sts	0x0630, r1	; 0x800630 <_ZN7TwoWire13rxBufferIndexE>
    30c4:	10 92 2f 06 	sts	0x062F, r1	; 0x80062f <_ZN7TwoWire14rxBufferLengthE>
    30c8:	10 92 0d 06 	sts	0x060D, r1	; 0x80060d <_ZN7TwoWire13txBufferIndexE>
    30cc:	10 92 0c 06 	sts	0x060C, r1	; 0x80060c <_ZN7TwoWire14txBufferLengthE>
    30d0:	0c 94 ef 15 	jmp	0x2bde	; 0x2bde <twi_init>

000030d4 <_ZN7TwoWire17beginTransmissionEh>:
    30d4:	81 e0       	ldi	r24, 0x01	; 1
    30d6:	80 93 0b 06 	sts	0x060B, r24	; 0x80060b <_ZN7TwoWire12transmittingE>
    30da:	60 93 2e 06 	sts	0x062E, r22	; 0x80062e <_ZN7TwoWire9txAddressE>
    30de:	10 92 0d 06 	sts	0x060D, r1	; 0x80060d <_ZN7TwoWire13txBufferIndexE>
    30e2:	10 92 0c 06 	sts	0x060C, r1	; 0x80060c <_ZN7TwoWire14txBufferLengthE>
    30e6:	08 95       	ret

000030e8 <_ZN7TwoWire15endTransmissionEh>:
    30e8:	0f 93       	push	r16
    30ea:	06 2f       	mov	r16, r22
    30ec:	21 e0       	ldi	r18, 0x01	; 1
    30ee:	40 91 0c 06 	lds	r20, 0x060C	; 0x80060c <_ZN7TwoWire14txBufferLengthE>
    30f2:	6e e0       	ldi	r22, 0x0E	; 14
    30f4:	76 e0       	ldi	r23, 0x06	; 6
    30f6:	80 91 2e 06 	lds	r24, 0x062E	; 0x80062e <_ZN7TwoWire9txAddressE>
    30fa:	0e 94 0d 16 	call	0x2c1a	; 0x2c1a <twi_writeTo>
    30fe:	10 92 0d 06 	sts	0x060D, r1	; 0x80060d <_ZN7TwoWire13txBufferIndexE>
    3102:	10 92 0c 06 	sts	0x060C, r1	; 0x80060c <_ZN7TwoWire14txBufferLengthE>
    3106:	10 92 0b 06 	sts	0x060B, r1	; 0x80060b <_ZN7TwoWire12transmittingE>
    310a:	0f 91       	pop	r16
    310c:	08 95       	ret

0000310e <_ZN7TwoWire15endTransmissionEv>:
    310e:	61 e0       	ldi	r22, 0x01	; 1
    3110:	0c 94 74 18 	jmp	0x30e8	; 0x30e8 <_ZN7TwoWire15endTransmissionEh>

00003114 <_GLOBAL__sub_I__ZN7TwoWire8rxBufferE>:
}

// Preinstantiate Objects //////////////////////////////////////////////////////

TwoWire Wire = TwoWire();
    3114:	8f ef       	ldi	r24, 0xFF	; 255
    3116:	95 e0       	ldi	r25, 0x05	; 5
    3118:	0c 94 50 18 	jmp	0x30a0	; 0x30a0 <_ZN7TwoWireC1Ev>

0000311c <__subsf3>:
    311c:	50 58       	subi	r21, 0x80	; 128

0000311e <__addsf3>:
    311e:	bb 27       	eor	r27, r27
    3120:	aa 27       	eor	r26, r26
    3122:	0e 94 a6 18 	call	0x314c	; 0x314c <__addsf3x>
    3126:	0c 94 20 1a 	jmp	0x3440	; 0x3440 <__fp_round>
    312a:	0e 94 12 1a 	call	0x3424	; 0x3424 <__fp_pscA>
    312e:	38 f0       	brcs	.+14     	; 0x313e <__addsf3+0x20>
    3130:	0e 94 19 1a 	call	0x3432	; 0x3432 <__fp_pscB>
    3134:	20 f0       	brcs	.+8      	; 0x313e <__addsf3+0x20>
    3136:	39 f4       	brne	.+14     	; 0x3146 <__addsf3+0x28>
    3138:	9f 3f       	cpi	r25, 0xFF	; 255
    313a:	19 f4       	brne	.+6      	; 0x3142 <__addsf3+0x24>
    313c:	26 f4       	brtc	.+8      	; 0x3146 <__addsf3+0x28>
    313e:	0c 94 0f 1a 	jmp	0x341e	; 0x341e <__fp_nan>
    3142:	0e f4       	brtc	.+2      	; 0x3146 <__addsf3+0x28>
    3144:	e0 95       	com	r30
    3146:	e7 fb       	bst	r30, 7
    3148:	0c 94 09 1a 	jmp	0x3412	; 0x3412 <__fp_inf>

0000314c <__addsf3x>:
    314c:	e9 2f       	mov	r30, r25
    314e:	0e 94 31 1a 	call	0x3462	; 0x3462 <__fp_split3>
    3152:	58 f3       	brcs	.-42     	; 0x312a <__addsf3+0xc>
    3154:	ba 17       	cp	r27, r26
    3156:	62 07       	cpc	r22, r18
    3158:	73 07       	cpc	r23, r19
    315a:	84 07       	cpc	r24, r20
    315c:	95 07       	cpc	r25, r21
    315e:	20 f0       	brcs	.+8      	; 0x3168 <__addsf3x+0x1c>
    3160:	79 f4       	brne	.+30     	; 0x3180 <__addsf3x+0x34>
    3162:	a6 f5       	brtc	.+104    	; 0x31cc <__addsf3x+0x80>
    3164:	0c 94 53 1a 	jmp	0x34a6	; 0x34a6 <__fp_zero>
    3168:	0e f4       	brtc	.+2      	; 0x316c <__addsf3x+0x20>
    316a:	e0 95       	com	r30
    316c:	0b 2e       	mov	r0, r27
    316e:	ba 2f       	mov	r27, r26
    3170:	a0 2d       	mov	r26, r0
    3172:	0b 01       	movw	r0, r22
    3174:	b9 01       	movw	r22, r18
    3176:	90 01       	movw	r18, r0
    3178:	0c 01       	movw	r0, r24
    317a:	ca 01       	movw	r24, r20
    317c:	a0 01       	movw	r20, r0
    317e:	11 24       	eor	r1, r1
    3180:	ff 27       	eor	r31, r31
    3182:	59 1b       	sub	r21, r25
    3184:	99 f0       	breq	.+38     	; 0x31ac <__addsf3x+0x60>
    3186:	59 3f       	cpi	r21, 0xF9	; 249
    3188:	50 f4       	brcc	.+20     	; 0x319e <__addsf3x+0x52>
    318a:	50 3e       	cpi	r21, 0xE0	; 224
    318c:	68 f1       	brcs	.+90     	; 0x31e8 <__addsf3x+0x9c>
    318e:	1a 16       	cp	r1, r26
    3190:	f0 40       	sbci	r31, 0x00	; 0
    3192:	a2 2f       	mov	r26, r18
    3194:	23 2f       	mov	r18, r19
    3196:	34 2f       	mov	r19, r20
    3198:	44 27       	eor	r20, r20
    319a:	58 5f       	subi	r21, 0xF8	; 248
    319c:	f3 cf       	rjmp	.-26     	; 0x3184 <__addsf3x+0x38>
    319e:	46 95       	lsr	r20
    31a0:	37 95       	ror	r19
    31a2:	27 95       	ror	r18
    31a4:	a7 95       	ror	r26
    31a6:	f0 40       	sbci	r31, 0x00	; 0
    31a8:	53 95       	inc	r21
    31aa:	c9 f7       	brne	.-14     	; 0x319e <__addsf3x+0x52>
    31ac:	7e f4       	brtc	.+30     	; 0x31cc <__addsf3x+0x80>
    31ae:	1f 16       	cp	r1, r31
    31b0:	ba 0b       	sbc	r27, r26
    31b2:	62 0b       	sbc	r22, r18
    31b4:	73 0b       	sbc	r23, r19
    31b6:	84 0b       	sbc	r24, r20
    31b8:	ba f0       	brmi	.+46     	; 0x31e8 <__addsf3x+0x9c>
    31ba:	91 50       	subi	r25, 0x01	; 1
    31bc:	a1 f0       	breq	.+40     	; 0x31e6 <__addsf3x+0x9a>
    31be:	ff 0f       	add	r31, r31
    31c0:	bb 1f       	adc	r27, r27
    31c2:	66 1f       	adc	r22, r22
    31c4:	77 1f       	adc	r23, r23
    31c6:	88 1f       	adc	r24, r24
    31c8:	c2 f7       	brpl	.-16     	; 0x31ba <__addsf3x+0x6e>
    31ca:	0e c0       	rjmp	.+28     	; 0x31e8 <__addsf3x+0x9c>
    31cc:	ba 0f       	add	r27, r26
    31ce:	62 1f       	adc	r22, r18
    31d0:	73 1f       	adc	r23, r19
    31d2:	84 1f       	adc	r24, r20
    31d4:	48 f4       	brcc	.+18     	; 0x31e8 <__addsf3x+0x9c>
    31d6:	87 95       	ror	r24
    31d8:	77 95       	ror	r23
    31da:	67 95       	ror	r22
    31dc:	b7 95       	ror	r27
    31de:	f7 95       	ror	r31
    31e0:	9e 3f       	cpi	r25, 0xFE	; 254
    31e2:	08 f0       	brcs	.+2      	; 0x31e6 <__addsf3x+0x9a>
    31e4:	b0 cf       	rjmp	.-160    	; 0x3146 <__addsf3+0x28>
    31e6:	93 95       	inc	r25
    31e8:	88 0f       	add	r24, r24
    31ea:	08 f0       	brcs	.+2      	; 0x31ee <__addsf3x+0xa2>
    31ec:	99 27       	eor	r25, r25
    31ee:	ee 0f       	add	r30, r30
    31f0:	97 95       	ror	r25
    31f2:	87 95       	ror	r24
    31f4:	08 95       	ret

000031f6 <__cmpsf2>:
    31f6:	0e 94 e5 19 	call	0x33ca	; 0x33ca <__fp_cmp>
    31fa:	08 f4       	brcc	.+2      	; 0x31fe <__cmpsf2+0x8>
    31fc:	81 e0       	ldi	r24, 0x01	; 1
    31fe:	08 95       	ret

00003200 <__divsf3>:
    3200:	0e 94 14 19 	call	0x3228	; 0x3228 <__divsf3x>
    3204:	0c 94 20 1a 	jmp	0x3440	; 0x3440 <__fp_round>
    3208:	0e 94 19 1a 	call	0x3432	; 0x3432 <__fp_pscB>
    320c:	58 f0       	brcs	.+22     	; 0x3224 <__divsf3+0x24>
    320e:	0e 94 12 1a 	call	0x3424	; 0x3424 <__fp_pscA>
    3212:	40 f0       	brcs	.+16     	; 0x3224 <__divsf3+0x24>
    3214:	29 f4       	brne	.+10     	; 0x3220 <__divsf3+0x20>
    3216:	5f 3f       	cpi	r21, 0xFF	; 255
    3218:	29 f0       	breq	.+10     	; 0x3224 <__divsf3+0x24>
    321a:	0c 94 09 1a 	jmp	0x3412	; 0x3412 <__fp_inf>
    321e:	51 11       	cpse	r21, r1
    3220:	0c 94 54 1a 	jmp	0x34a8	; 0x34a8 <__fp_szero>
    3224:	0c 94 0f 1a 	jmp	0x341e	; 0x341e <__fp_nan>

00003228 <__divsf3x>:
    3228:	0e 94 31 1a 	call	0x3462	; 0x3462 <__fp_split3>
    322c:	68 f3       	brcs	.-38     	; 0x3208 <__divsf3+0x8>

0000322e <__divsf3_pse>:
    322e:	99 23       	and	r25, r25
    3230:	b1 f3       	breq	.-20     	; 0x321e <__divsf3+0x1e>
    3232:	55 23       	and	r21, r21
    3234:	91 f3       	breq	.-28     	; 0x321a <__divsf3+0x1a>
    3236:	95 1b       	sub	r25, r21
    3238:	55 0b       	sbc	r21, r21
    323a:	bb 27       	eor	r27, r27
    323c:	aa 27       	eor	r26, r26
    323e:	62 17       	cp	r22, r18
    3240:	73 07       	cpc	r23, r19
    3242:	84 07       	cpc	r24, r20
    3244:	38 f0       	brcs	.+14     	; 0x3254 <__divsf3_pse+0x26>
    3246:	9f 5f       	subi	r25, 0xFF	; 255
    3248:	5f 4f       	sbci	r21, 0xFF	; 255
    324a:	22 0f       	add	r18, r18
    324c:	33 1f       	adc	r19, r19
    324e:	44 1f       	adc	r20, r20
    3250:	aa 1f       	adc	r26, r26
    3252:	a9 f3       	breq	.-22     	; 0x323e <__divsf3_pse+0x10>
    3254:	35 d0       	rcall	.+106    	; 0x32c0 <__divsf3_pse+0x92>
    3256:	0e 2e       	mov	r0, r30
    3258:	3a f0       	brmi	.+14     	; 0x3268 <__divsf3_pse+0x3a>
    325a:	e0 e8       	ldi	r30, 0x80	; 128
    325c:	32 d0       	rcall	.+100    	; 0x32c2 <__divsf3_pse+0x94>
    325e:	91 50       	subi	r25, 0x01	; 1
    3260:	50 40       	sbci	r21, 0x00	; 0
    3262:	e6 95       	lsr	r30
    3264:	00 1c       	adc	r0, r0
    3266:	ca f7       	brpl	.-14     	; 0x325a <__divsf3_pse+0x2c>
    3268:	2b d0       	rcall	.+86     	; 0x32c0 <__divsf3_pse+0x92>
    326a:	fe 2f       	mov	r31, r30
    326c:	29 d0       	rcall	.+82     	; 0x32c0 <__divsf3_pse+0x92>
    326e:	66 0f       	add	r22, r22
    3270:	77 1f       	adc	r23, r23
    3272:	88 1f       	adc	r24, r24
    3274:	bb 1f       	adc	r27, r27
    3276:	26 17       	cp	r18, r22
    3278:	37 07       	cpc	r19, r23
    327a:	48 07       	cpc	r20, r24
    327c:	ab 07       	cpc	r26, r27
    327e:	b0 e8       	ldi	r27, 0x80	; 128
    3280:	09 f0       	breq	.+2      	; 0x3284 <__divsf3_pse+0x56>
    3282:	bb 0b       	sbc	r27, r27
    3284:	80 2d       	mov	r24, r0
    3286:	bf 01       	movw	r22, r30
    3288:	ff 27       	eor	r31, r31
    328a:	93 58       	subi	r25, 0x83	; 131
    328c:	5f 4f       	sbci	r21, 0xFF	; 255
    328e:	3a f0       	brmi	.+14     	; 0x329e <__divsf3_pse+0x70>
    3290:	9e 3f       	cpi	r25, 0xFE	; 254
    3292:	51 05       	cpc	r21, r1
    3294:	78 f0       	brcs	.+30     	; 0x32b4 <__divsf3_pse+0x86>
    3296:	0c 94 09 1a 	jmp	0x3412	; 0x3412 <__fp_inf>
    329a:	0c 94 54 1a 	jmp	0x34a8	; 0x34a8 <__fp_szero>
    329e:	5f 3f       	cpi	r21, 0xFF	; 255
    32a0:	e4 f3       	brlt	.-8      	; 0x329a <__divsf3_pse+0x6c>
    32a2:	98 3e       	cpi	r25, 0xE8	; 232
    32a4:	d4 f3       	brlt	.-12     	; 0x329a <__divsf3_pse+0x6c>
    32a6:	86 95       	lsr	r24
    32a8:	77 95       	ror	r23
    32aa:	67 95       	ror	r22
    32ac:	b7 95       	ror	r27
    32ae:	f7 95       	ror	r31
    32b0:	9f 5f       	subi	r25, 0xFF	; 255
    32b2:	c9 f7       	brne	.-14     	; 0x32a6 <__divsf3_pse+0x78>
    32b4:	88 0f       	add	r24, r24
    32b6:	91 1d       	adc	r25, r1
    32b8:	96 95       	lsr	r25
    32ba:	87 95       	ror	r24
    32bc:	97 f9       	bld	r25, 7
    32be:	08 95       	ret
    32c0:	e1 e0       	ldi	r30, 0x01	; 1
    32c2:	66 0f       	add	r22, r22
    32c4:	77 1f       	adc	r23, r23
    32c6:	88 1f       	adc	r24, r24
    32c8:	bb 1f       	adc	r27, r27
    32ca:	62 17       	cp	r22, r18
    32cc:	73 07       	cpc	r23, r19
    32ce:	84 07       	cpc	r24, r20
    32d0:	ba 07       	cpc	r27, r26
    32d2:	20 f0       	brcs	.+8      	; 0x32dc <__divsf3_pse+0xae>
    32d4:	62 1b       	sub	r22, r18
    32d6:	73 0b       	sbc	r23, r19
    32d8:	84 0b       	sbc	r24, r20
    32da:	ba 0b       	sbc	r27, r26
    32dc:	ee 1f       	adc	r30, r30
    32de:	88 f7       	brcc	.-30     	; 0x32c2 <__divsf3_pse+0x94>
    32e0:	e0 95       	com	r30
    32e2:	08 95       	ret

000032e4 <__fixsfsi>:
    32e4:	0e 94 79 19 	call	0x32f2	; 0x32f2 <__fixunssfsi>
    32e8:	68 94       	set
    32ea:	b1 11       	cpse	r27, r1
    32ec:	0c 94 54 1a 	jmp	0x34a8	; 0x34a8 <__fp_szero>
    32f0:	08 95       	ret

000032f2 <__fixunssfsi>:
    32f2:	0e 94 39 1a 	call	0x3472	; 0x3472 <__fp_splitA>
    32f6:	88 f0       	brcs	.+34     	; 0x331a <__fixunssfsi+0x28>
    32f8:	9f 57       	subi	r25, 0x7F	; 127
    32fa:	98 f0       	brcs	.+38     	; 0x3322 <__fixunssfsi+0x30>
    32fc:	b9 2f       	mov	r27, r25
    32fe:	99 27       	eor	r25, r25
    3300:	b7 51       	subi	r27, 0x17	; 23
    3302:	b0 f0       	brcs	.+44     	; 0x3330 <__fixunssfsi+0x3e>
    3304:	e1 f0       	breq	.+56     	; 0x333e <__fixunssfsi+0x4c>
    3306:	66 0f       	add	r22, r22
    3308:	77 1f       	adc	r23, r23
    330a:	88 1f       	adc	r24, r24
    330c:	99 1f       	adc	r25, r25
    330e:	1a f0       	brmi	.+6      	; 0x3316 <__fixunssfsi+0x24>
    3310:	ba 95       	dec	r27
    3312:	c9 f7       	brne	.-14     	; 0x3306 <__fixunssfsi+0x14>
    3314:	14 c0       	rjmp	.+40     	; 0x333e <__fixunssfsi+0x4c>
    3316:	b1 30       	cpi	r27, 0x01	; 1
    3318:	91 f0       	breq	.+36     	; 0x333e <__fixunssfsi+0x4c>
    331a:	0e 94 53 1a 	call	0x34a6	; 0x34a6 <__fp_zero>
    331e:	b1 e0       	ldi	r27, 0x01	; 1
    3320:	08 95       	ret
    3322:	0c 94 53 1a 	jmp	0x34a6	; 0x34a6 <__fp_zero>
    3326:	67 2f       	mov	r22, r23
    3328:	78 2f       	mov	r23, r24
    332a:	88 27       	eor	r24, r24
    332c:	b8 5f       	subi	r27, 0xF8	; 248
    332e:	39 f0       	breq	.+14     	; 0x333e <__fixunssfsi+0x4c>
    3330:	b9 3f       	cpi	r27, 0xF9	; 249
    3332:	cc f3       	brlt	.-14     	; 0x3326 <__fixunssfsi+0x34>
    3334:	86 95       	lsr	r24
    3336:	77 95       	ror	r23
    3338:	67 95       	ror	r22
    333a:	b3 95       	inc	r27
    333c:	d9 f7       	brne	.-10     	; 0x3334 <__fixunssfsi+0x42>
    333e:	3e f4       	brtc	.+14     	; 0x334e <__fixunssfsi+0x5c>
    3340:	90 95       	com	r25
    3342:	80 95       	com	r24
    3344:	70 95       	com	r23
    3346:	61 95       	neg	r22
    3348:	7f 4f       	sbci	r23, 0xFF	; 255
    334a:	8f 4f       	sbci	r24, 0xFF	; 255
    334c:	9f 4f       	sbci	r25, 0xFF	; 255
    334e:	08 95       	ret

00003350 <__floatunsisf>:
    3350:	e8 94       	clt
    3352:	09 c0       	rjmp	.+18     	; 0x3366 <__floatsisf+0x12>

00003354 <__floatsisf>:
    3354:	97 fb       	bst	r25, 7
    3356:	3e f4       	brtc	.+14     	; 0x3366 <__floatsisf+0x12>
    3358:	90 95       	com	r25
    335a:	80 95       	com	r24
    335c:	70 95       	com	r23
    335e:	61 95       	neg	r22
    3360:	7f 4f       	sbci	r23, 0xFF	; 255
    3362:	8f 4f       	sbci	r24, 0xFF	; 255
    3364:	9f 4f       	sbci	r25, 0xFF	; 255
    3366:	99 23       	and	r25, r25
    3368:	a9 f0       	breq	.+42     	; 0x3394 <__floatsisf+0x40>
    336a:	f9 2f       	mov	r31, r25
    336c:	96 e9       	ldi	r25, 0x96	; 150
    336e:	bb 27       	eor	r27, r27
    3370:	93 95       	inc	r25
    3372:	f6 95       	lsr	r31
    3374:	87 95       	ror	r24
    3376:	77 95       	ror	r23
    3378:	67 95       	ror	r22
    337a:	b7 95       	ror	r27
    337c:	f1 11       	cpse	r31, r1
    337e:	f8 cf       	rjmp	.-16     	; 0x3370 <__floatsisf+0x1c>
    3380:	fa f4       	brpl	.+62     	; 0x33c0 <__floatsisf+0x6c>
    3382:	bb 0f       	add	r27, r27
    3384:	11 f4       	brne	.+4      	; 0x338a <__floatsisf+0x36>
    3386:	60 ff       	sbrs	r22, 0
    3388:	1b c0       	rjmp	.+54     	; 0x33c0 <__floatsisf+0x6c>
    338a:	6f 5f       	subi	r22, 0xFF	; 255
    338c:	7f 4f       	sbci	r23, 0xFF	; 255
    338e:	8f 4f       	sbci	r24, 0xFF	; 255
    3390:	9f 4f       	sbci	r25, 0xFF	; 255
    3392:	16 c0       	rjmp	.+44     	; 0x33c0 <__floatsisf+0x6c>
    3394:	88 23       	and	r24, r24
    3396:	11 f0       	breq	.+4      	; 0x339c <__floatsisf+0x48>
    3398:	96 e9       	ldi	r25, 0x96	; 150
    339a:	11 c0       	rjmp	.+34     	; 0x33be <__floatsisf+0x6a>
    339c:	77 23       	and	r23, r23
    339e:	21 f0       	breq	.+8      	; 0x33a8 <__floatsisf+0x54>
    33a0:	9e e8       	ldi	r25, 0x8E	; 142
    33a2:	87 2f       	mov	r24, r23
    33a4:	76 2f       	mov	r23, r22
    33a6:	05 c0       	rjmp	.+10     	; 0x33b2 <__floatsisf+0x5e>
    33a8:	66 23       	and	r22, r22
    33aa:	71 f0       	breq	.+28     	; 0x33c8 <__floatsisf+0x74>
    33ac:	96 e8       	ldi	r25, 0x86	; 134
    33ae:	86 2f       	mov	r24, r22
    33b0:	70 e0       	ldi	r23, 0x00	; 0
    33b2:	60 e0       	ldi	r22, 0x00	; 0
    33b4:	2a f0       	brmi	.+10     	; 0x33c0 <__floatsisf+0x6c>
    33b6:	9a 95       	dec	r25
    33b8:	66 0f       	add	r22, r22
    33ba:	77 1f       	adc	r23, r23
    33bc:	88 1f       	adc	r24, r24
    33be:	da f7       	brpl	.-10     	; 0x33b6 <__floatsisf+0x62>
    33c0:	88 0f       	add	r24, r24
    33c2:	96 95       	lsr	r25
    33c4:	87 95       	ror	r24
    33c6:	97 f9       	bld	r25, 7
    33c8:	08 95       	ret

000033ca <__fp_cmp>:
    33ca:	99 0f       	add	r25, r25
    33cc:	00 08       	sbc	r0, r0
    33ce:	55 0f       	add	r21, r21
    33d0:	aa 0b       	sbc	r26, r26
    33d2:	e0 e8       	ldi	r30, 0x80	; 128
    33d4:	fe ef       	ldi	r31, 0xFE	; 254
    33d6:	16 16       	cp	r1, r22
    33d8:	17 06       	cpc	r1, r23
    33da:	e8 07       	cpc	r30, r24
    33dc:	f9 07       	cpc	r31, r25
    33de:	c0 f0       	brcs	.+48     	; 0x3410 <__fp_cmp+0x46>
    33e0:	12 16       	cp	r1, r18
    33e2:	13 06       	cpc	r1, r19
    33e4:	e4 07       	cpc	r30, r20
    33e6:	f5 07       	cpc	r31, r21
    33e8:	98 f0       	brcs	.+38     	; 0x3410 <__fp_cmp+0x46>
    33ea:	62 1b       	sub	r22, r18
    33ec:	73 0b       	sbc	r23, r19
    33ee:	84 0b       	sbc	r24, r20
    33f0:	95 0b       	sbc	r25, r21
    33f2:	39 f4       	brne	.+14     	; 0x3402 <__fp_cmp+0x38>
    33f4:	0a 26       	eor	r0, r26
    33f6:	61 f0       	breq	.+24     	; 0x3410 <__fp_cmp+0x46>
    33f8:	23 2b       	or	r18, r19
    33fa:	24 2b       	or	r18, r20
    33fc:	25 2b       	or	r18, r21
    33fe:	21 f4       	brne	.+8      	; 0x3408 <__fp_cmp+0x3e>
    3400:	08 95       	ret
    3402:	0a 26       	eor	r0, r26
    3404:	09 f4       	brne	.+2      	; 0x3408 <__fp_cmp+0x3e>
    3406:	a1 40       	sbci	r26, 0x01	; 1
    3408:	a6 95       	lsr	r26
    340a:	8f ef       	ldi	r24, 0xFF	; 255
    340c:	81 1d       	adc	r24, r1
    340e:	81 1d       	adc	r24, r1
    3410:	08 95       	ret

00003412 <__fp_inf>:
    3412:	97 f9       	bld	r25, 7
    3414:	9f 67       	ori	r25, 0x7F	; 127
    3416:	80 e8       	ldi	r24, 0x80	; 128
    3418:	70 e0       	ldi	r23, 0x00	; 0
    341a:	60 e0       	ldi	r22, 0x00	; 0
    341c:	08 95       	ret

0000341e <__fp_nan>:
    341e:	9f ef       	ldi	r25, 0xFF	; 255
    3420:	80 ec       	ldi	r24, 0xC0	; 192
    3422:	08 95       	ret

00003424 <__fp_pscA>:
    3424:	00 24       	eor	r0, r0
    3426:	0a 94       	dec	r0
    3428:	16 16       	cp	r1, r22
    342a:	17 06       	cpc	r1, r23
    342c:	18 06       	cpc	r1, r24
    342e:	09 06       	cpc	r0, r25
    3430:	08 95       	ret

00003432 <__fp_pscB>:
    3432:	00 24       	eor	r0, r0
    3434:	0a 94       	dec	r0
    3436:	12 16       	cp	r1, r18
    3438:	13 06       	cpc	r1, r19
    343a:	14 06       	cpc	r1, r20
    343c:	05 06       	cpc	r0, r21
    343e:	08 95       	ret

00003440 <__fp_round>:
    3440:	09 2e       	mov	r0, r25
    3442:	03 94       	inc	r0
    3444:	00 0c       	add	r0, r0
    3446:	11 f4       	brne	.+4      	; 0x344c <__fp_round+0xc>
    3448:	88 23       	and	r24, r24
    344a:	52 f0       	brmi	.+20     	; 0x3460 <__fp_round+0x20>
    344c:	bb 0f       	add	r27, r27
    344e:	40 f4       	brcc	.+16     	; 0x3460 <__fp_round+0x20>
    3450:	bf 2b       	or	r27, r31
    3452:	11 f4       	brne	.+4      	; 0x3458 <__fp_round+0x18>
    3454:	60 ff       	sbrs	r22, 0
    3456:	04 c0       	rjmp	.+8      	; 0x3460 <__fp_round+0x20>
    3458:	6f 5f       	subi	r22, 0xFF	; 255
    345a:	7f 4f       	sbci	r23, 0xFF	; 255
    345c:	8f 4f       	sbci	r24, 0xFF	; 255
    345e:	9f 4f       	sbci	r25, 0xFF	; 255
    3460:	08 95       	ret

00003462 <__fp_split3>:
    3462:	57 fd       	sbrc	r21, 7
    3464:	90 58       	subi	r25, 0x80	; 128
    3466:	44 0f       	add	r20, r20
    3468:	55 1f       	adc	r21, r21
    346a:	59 f0       	breq	.+22     	; 0x3482 <__fp_splitA+0x10>
    346c:	5f 3f       	cpi	r21, 0xFF	; 255
    346e:	71 f0       	breq	.+28     	; 0x348c <__fp_splitA+0x1a>
    3470:	47 95       	ror	r20

00003472 <__fp_splitA>:
    3472:	88 0f       	add	r24, r24
    3474:	97 fb       	bst	r25, 7
    3476:	99 1f       	adc	r25, r25
    3478:	61 f0       	breq	.+24     	; 0x3492 <__fp_splitA+0x20>
    347a:	9f 3f       	cpi	r25, 0xFF	; 255
    347c:	79 f0       	breq	.+30     	; 0x349c <__fp_splitA+0x2a>
    347e:	87 95       	ror	r24
    3480:	08 95       	ret
    3482:	12 16       	cp	r1, r18
    3484:	13 06       	cpc	r1, r19
    3486:	14 06       	cpc	r1, r20
    3488:	55 1f       	adc	r21, r21
    348a:	f2 cf       	rjmp	.-28     	; 0x3470 <__fp_split3+0xe>
    348c:	46 95       	lsr	r20
    348e:	f1 df       	rcall	.-30     	; 0x3472 <__fp_splitA>
    3490:	08 c0       	rjmp	.+16     	; 0x34a2 <__fp_splitA+0x30>
    3492:	16 16       	cp	r1, r22
    3494:	17 06       	cpc	r1, r23
    3496:	18 06       	cpc	r1, r24
    3498:	99 1f       	adc	r25, r25
    349a:	f1 cf       	rjmp	.-30     	; 0x347e <__fp_splitA+0xc>
    349c:	86 95       	lsr	r24
    349e:	71 05       	cpc	r23, r1
    34a0:	61 05       	cpc	r22, r1
    34a2:	08 94       	sec
    34a4:	08 95       	ret

000034a6 <__fp_zero>:
    34a6:	e8 94       	clt

000034a8 <__fp_szero>:
    34a8:	bb 27       	eor	r27, r27
    34aa:	66 27       	eor	r22, r22
    34ac:	77 27       	eor	r23, r23
    34ae:	cb 01       	movw	r24, r22
    34b0:	97 f9       	bld	r25, 7
    34b2:	08 95       	ret

000034b4 <__gesf2>:
    34b4:	0e 94 e5 19 	call	0x33ca	; 0x33ca <__fp_cmp>
    34b8:	08 f4       	brcc	.+2      	; 0x34bc <__gesf2+0x8>
    34ba:	8f ef       	ldi	r24, 0xFF	; 255
    34bc:	08 95       	ret

000034be <__mulsf3>:
    34be:	0e 94 72 1a 	call	0x34e4	; 0x34e4 <__mulsf3x>
    34c2:	0c 94 20 1a 	jmp	0x3440	; 0x3440 <__fp_round>
    34c6:	0e 94 12 1a 	call	0x3424	; 0x3424 <__fp_pscA>
    34ca:	38 f0       	brcs	.+14     	; 0x34da <__mulsf3+0x1c>
    34cc:	0e 94 19 1a 	call	0x3432	; 0x3432 <__fp_pscB>
    34d0:	20 f0       	brcs	.+8      	; 0x34da <__mulsf3+0x1c>
    34d2:	95 23       	and	r25, r21
    34d4:	11 f0       	breq	.+4      	; 0x34da <__mulsf3+0x1c>
    34d6:	0c 94 09 1a 	jmp	0x3412	; 0x3412 <__fp_inf>
    34da:	0c 94 0f 1a 	jmp	0x341e	; 0x341e <__fp_nan>
    34de:	11 24       	eor	r1, r1
    34e0:	0c 94 54 1a 	jmp	0x34a8	; 0x34a8 <__fp_szero>

000034e4 <__mulsf3x>:
    34e4:	0e 94 31 1a 	call	0x3462	; 0x3462 <__fp_split3>
    34e8:	70 f3       	brcs	.-36     	; 0x34c6 <__mulsf3+0x8>

000034ea <__mulsf3_pse>:
    34ea:	95 9f       	mul	r25, r21
    34ec:	c1 f3       	breq	.-16     	; 0x34de <__mulsf3+0x20>
    34ee:	95 0f       	add	r25, r21
    34f0:	50 e0       	ldi	r21, 0x00	; 0
    34f2:	55 1f       	adc	r21, r21
    34f4:	62 9f       	mul	r22, r18
    34f6:	f0 01       	movw	r30, r0
    34f8:	72 9f       	mul	r23, r18
    34fa:	bb 27       	eor	r27, r27
    34fc:	f0 0d       	add	r31, r0
    34fe:	b1 1d       	adc	r27, r1
    3500:	63 9f       	mul	r22, r19
    3502:	aa 27       	eor	r26, r26
    3504:	f0 0d       	add	r31, r0
    3506:	b1 1d       	adc	r27, r1
    3508:	aa 1f       	adc	r26, r26
    350a:	64 9f       	mul	r22, r20
    350c:	66 27       	eor	r22, r22
    350e:	b0 0d       	add	r27, r0
    3510:	a1 1d       	adc	r26, r1
    3512:	66 1f       	adc	r22, r22
    3514:	82 9f       	mul	r24, r18
    3516:	22 27       	eor	r18, r18
    3518:	b0 0d       	add	r27, r0
    351a:	a1 1d       	adc	r26, r1
    351c:	62 1f       	adc	r22, r18
    351e:	73 9f       	mul	r23, r19
    3520:	b0 0d       	add	r27, r0
    3522:	a1 1d       	adc	r26, r1
    3524:	62 1f       	adc	r22, r18
    3526:	83 9f       	mul	r24, r19
    3528:	a0 0d       	add	r26, r0
    352a:	61 1d       	adc	r22, r1
    352c:	22 1f       	adc	r18, r18
    352e:	74 9f       	mul	r23, r20
    3530:	33 27       	eor	r19, r19
    3532:	a0 0d       	add	r26, r0
    3534:	61 1d       	adc	r22, r1
    3536:	23 1f       	adc	r18, r19
    3538:	84 9f       	mul	r24, r20
    353a:	60 0d       	add	r22, r0
    353c:	21 1d       	adc	r18, r1
    353e:	82 2f       	mov	r24, r18
    3540:	76 2f       	mov	r23, r22
    3542:	6a 2f       	mov	r22, r26
    3544:	11 24       	eor	r1, r1
    3546:	9f 57       	subi	r25, 0x7F	; 127
    3548:	50 40       	sbci	r21, 0x00	; 0
    354a:	9a f0       	brmi	.+38     	; 0x3572 <__mulsf3_pse+0x88>
    354c:	f1 f0       	breq	.+60     	; 0x358a <__mulsf3_pse+0xa0>
    354e:	88 23       	and	r24, r24
    3550:	4a f0       	brmi	.+18     	; 0x3564 <__mulsf3_pse+0x7a>
    3552:	ee 0f       	add	r30, r30
    3554:	ff 1f       	adc	r31, r31
    3556:	bb 1f       	adc	r27, r27
    3558:	66 1f       	adc	r22, r22
    355a:	77 1f       	adc	r23, r23
    355c:	88 1f       	adc	r24, r24
    355e:	91 50       	subi	r25, 0x01	; 1
    3560:	50 40       	sbci	r21, 0x00	; 0
    3562:	a9 f7       	brne	.-22     	; 0x354e <__mulsf3_pse+0x64>
    3564:	9e 3f       	cpi	r25, 0xFE	; 254
    3566:	51 05       	cpc	r21, r1
    3568:	80 f0       	brcs	.+32     	; 0x358a <__mulsf3_pse+0xa0>
    356a:	0c 94 09 1a 	jmp	0x3412	; 0x3412 <__fp_inf>
    356e:	0c 94 54 1a 	jmp	0x34a8	; 0x34a8 <__fp_szero>
    3572:	5f 3f       	cpi	r21, 0xFF	; 255
    3574:	e4 f3       	brlt	.-8      	; 0x356e <__mulsf3_pse+0x84>
    3576:	98 3e       	cpi	r25, 0xE8	; 232
    3578:	d4 f3       	brlt	.-12     	; 0x356e <__mulsf3_pse+0x84>
    357a:	86 95       	lsr	r24
    357c:	77 95       	ror	r23
    357e:	67 95       	ror	r22
    3580:	b7 95       	ror	r27
    3582:	f7 95       	ror	r31
    3584:	e7 95       	ror	r30
    3586:	9f 5f       	subi	r25, 0xFF	; 255
    3588:	c1 f7       	brne	.-16     	; 0x357a <__mulsf3_pse+0x90>
    358a:	fe 2b       	or	r31, r30
    358c:	88 0f       	add	r24, r24
    358e:	91 1d       	adc	r25, r1
    3590:	96 95       	lsr	r25
    3592:	87 95       	ror	r24
    3594:	97 f9       	bld	r25, 7
    3596:	08 95       	ret

00003598 <initVariant>:
    3598:	08 95       	ret

0000359a <main>:
void setupUSB() __attribute__((weak));
void setupUSB() { }

int main(void)
{
	init();
    359a:	0e 94 ff 1c 	call	0x39fe	; 0x39fe <init>

	initVariant();
    359e:	0e 94 cc 1a 	call	0x3598	; 0x3598 <initVariant>

#if defined(USBCON)
	USBDevice.attach();
#endif
	
	setup();
    35a2:	0e 94 ac 0a 	call	0x1558	; 0x1558 <setup>
    
	for (;;) {
		loop();
		if (serialEventRun) serialEventRun();
    35a6:	c0 e0       	ldi	r28, 0x00	; 0
    35a8:	d0 e0       	ldi	r29, 0x00	; 0
#endif
	
	setup();
    
	for (;;) {
		loop();
    35aa:	0e 94 d6 0d 	call	0x1bac	; 0x1bac <loop>
		if (serialEventRun) serialEventRun();
    35ae:	20 97       	sbiw	r28, 0x00	; 0
    35b0:	e1 f3       	breq	.-8      	; 0x35aa <main+0x10>
    35b2:	0e 94 00 00 	call	0	; 0x0 <__vectors>
    35b6:	f9 cf       	rjmp	.-14     	; 0x35aa <main+0x10>

000035b8 <_Znwj>:
    35b8:	0c 94 42 20 	jmp	0x4084	; 0x4084 <malloc>

000035bc <_ZdlPv>:
    35bc:	0c 94 da 20 	jmp	0x41b4	; 0x41b4 <free>

000035c0 <_ZN5Print5writeEPKhj>:
size_t Print::println(unsigned long num, int base)
{
  size_t n = print(num, base);
  n += println();
  return n;
}
    35c0:	cf 92       	push	r12
    35c2:	df 92       	push	r13
    35c4:	ef 92       	push	r14
    35c6:	ff 92       	push	r15
    35c8:	0f 93       	push	r16
    35ca:	1f 93       	push	r17
    35cc:	cf 93       	push	r28
    35ce:	df 93       	push	r29
    35d0:	6c 01       	movw	r12, r24
    35d2:	7a 01       	movw	r14, r20
    35d4:	8b 01       	movw	r16, r22
    35d6:	c0 e0       	ldi	r28, 0x00	; 0
    35d8:	d0 e0       	ldi	r29, 0x00	; 0
    35da:	ce 15       	cp	r28, r14
    35dc:	df 05       	cpc	r29, r15
    35de:	81 f0       	breq	.+32     	; 0x3600 <_ZN5Print5writeEPKhj+0x40>
    35e0:	d8 01       	movw	r26, r16
    35e2:	6d 91       	ld	r22, X+
    35e4:	8d 01       	movw	r16, r26
    35e6:	d6 01       	movw	r26, r12
    35e8:	ed 91       	ld	r30, X+
    35ea:	fc 91       	ld	r31, X
    35ec:	01 90       	ld	r0, Z+
    35ee:	f0 81       	ld	r31, Z
    35f0:	e0 2d       	mov	r30, r0
    35f2:	c6 01       	movw	r24, r12
    35f4:	09 95       	icall
    35f6:	89 2b       	or	r24, r25
    35f8:	11 f0       	breq	.+4      	; 0x35fe <_ZN5Print5writeEPKhj+0x3e>
    35fa:	21 96       	adiw	r28, 0x01	; 1
    35fc:	ee cf       	rjmp	.-36     	; 0x35da <_ZN5Print5writeEPKhj+0x1a>
    35fe:	7e 01       	movw	r14, r28
    3600:	c7 01       	movw	r24, r14
    3602:	df 91       	pop	r29
    3604:	cf 91       	pop	r28
    3606:	1f 91       	pop	r17
    3608:	0f 91       	pop	r16
    360a:	ff 90       	pop	r15
    360c:	ef 90       	pop	r14
    360e:	df 90       	pop	r13
    3610:	cf 90       	pop	r12
    3612:	08 95       	ret

00003614 <_ZN5Print5writeEPKc>:
    3614:	61 15       	cp	r22, r1
    3616:	71 05       	cpc	r23, r1
    3618:	79 f0       	breq	.+30     	; 0x3638 <_ZN5Print5writeEPKc+0x24>
    361a:	fb 01       	movw	r30, r22
    361c:	01 90       	ld	r0, Z+
    361e:	00 20       	and	r0, r0
    3620:	e9 f7       	brne	.-6      	; 0x361c <_ZN5Print5writeEPKc+0x8>
    3622:	31 97       	sbiw	r30, 0x01	; 1
    3624:	af 01       	movw	r20, r30
    3626:	46 1b       	sub	r20, r22
    3628:	57 0b       	sbc	r21, r23
    362a:	dc 01       	movw	r26, r24
    362c:	ed 91       	ld	r30, X+
    362e:	fc 91       	ld	r31, X
    3630:	02 80       	ldd	r0, Z+2	; 0x02
    3632:	f3 81       	ldd	r31, Z+3	; 0x03
    3634:	e0 2d       	mov	r30, r0
    3636:	09 94       	ijmp
    3638:	80 e0       	ldi	r24, 0x00	; 0
    363a:	90 e0       	ldi	r25, 0x00	; 0
    363c:	08 95       	ret

0000363e <_ZN5Print5printERK6String>:
    363e:	db 01       	movw	r26, r22
    3640:	14 96       	adiw	r26, 0x04	; 4
    3642:	4d 91       	ld	r20, X+
    3644:	5c 91       	ld	r21, X
    3646:	15 97       	sbiw	r26, 0x05	; 5
    3648:	6d 91       	ld	r22, X+
    364a:	7c 91       	ld	r23, X
    364c:	dc 01       	movw	r26, r24
    364e:	ed 91       	ld	r30, X+
    3650:	fc 91       	ld	r31, X
    3652:	02 80       	ldd	r0, Z+2	; 0x02
    3654:	f3 81       	ldd	r31, Z+3	; 0x03
    3656:	e0 2d       	mov	r30, r0
    3658:	09 94       	ijmp

0000365a <_ZN5Print5printEPKc>:
    365a:	0c 94 0a 1b 	jmp	0x3614	; 0x3614 <_ZN5Print5writeEPKc>

0000365e <_ZN5Print5printEc>:
    365e:	dc 01       	movw	r26, r24
    3660:	ed 91       	ld	r30, X+
    3662:	fc 91       	ld	r31, X
    3664:	01 90       	ld	r0, Z+
    3666:	f0 81       	ld	r31, Z
    3668:	e0 2d       	mov	r30, r0
    366a:	09 94       	ijmp

0000366c <_ZN5Print11printNumberEmh>:
    366c:	8f 92       	push	r8
    366e:	9f 92       	push	r9
    3670:	af 92       	push	r10
    3672:	bf 92       	push	r11
    3674:	ef 92       	push	r14
    3676:	ff 92       	push	r15
    3678:	0f 93       	push	r16
    367a:	1f 93       	push	r17
    367c:	cf 93       	push	r28
    367e:	df 93       	push	r29
    3680:	cd b7       	in	r28, 0x3d	; 61
    3682:	de b7       	in	r29, 0x3e	; 62
    3684:	a1 97       	sbiw	r28, 0x21	; 33
    3686:	0f b6       	in	r0, 0x3f	; 63
    3688:	f8 94       	cli
    368a:	de bf       	out	0x3e, r29	; 62
    368c:	0f be       	out	0x3f, r0	; 63
    368e:	cd bf       	out	0x3d, r28	; 61
    3690:	7c 01       	movw	r14, r24
    3692:	fa 01       	movw	r30, r20
    3694:	cb 01       	movw	r24, r22
    3696:	19 a2       	std	Y+33, r1	; 0x21
    3698:	22 30       	cpi	r18, 0x02	; 2
    369a:	08 f4       	brcc	.+2      	; 0x369e <_ZN5Print11printNumberEmh+0x32>
    369c:	2a e0       	ldi	r18, 0x0A	; 10
    369e:	8e 01       	movw	r16, r28
    36a0:	0f 5d       	subi	r16, 0xDF	; 223
    36a2:	1f 4f       	sbci	r17, 0xFF	; 255
    36a4:	82 2e       	mov	r8, r18
    36a6:	91 2c       	mov	r9, r1
    36a8:	a1 2c       	mov	r10, r1
    36aa:	b1 2c       	mov	r11, r1
    36ac:	bf 01       	movw	r22, r30
    36ae:	a5 01       	movw	r20, r10
    36b0:	94 01       	movw	r18, r8
    36b2:	0e 94 06 20 	call	0x400c	; 0x400c <__udivmodsi4>
    36b6:	f9 01       	movw	r30, r18
    36b8:	ca 01       	movw	r24, r20
    36ba:	01 50       	subi	r16, 0x01	; 1
    36bc:	11 09       	sbc	r17, r1
    36be:	6a 30       	cpi	r22, 0x0A	; 10
    36c0:	10 f4       	brcc	.+4      	; 0x36c6 <_ZN5Print11printNumberEmh+0x5a>
    36c2:	60 5d       	subi	r22, 0xD0	; 208
    36c4:	01 c0       	rjmp	.+2      	; 0x36c8 <_ZN5Print11printNumberEmh+0x5c>
    36c6:	69 5c       	subi	r22, 0xC9	; 201
    36c8:	d8 01       	movw	r26, r16
    36ca:	6c 93       	st	X, r22
    36cc:	23 2b       	or	r18, r19
    36ce:	24 2b       	or	r18, r20
    36d0:	25 2b       	or	r18, r21
    36d2:	61 f7       	brne	.-40     	; 0x36ac <_ZN5Print11printNumberEmh+0x40>
    36d4:	b8 01       	movw	r22, r16
    36d6:	c7 01       	movw	r24, r14
    36d8:	0e 94 0a 1b 	call	0x3614	; 0x3614 <_ZN5Print5writeEPKc>
    36dc:	a1 96       	adiw	r28, 0x21	; 33
    36de:	0f b6       	in	r0, 0x3f	; 63
    36e0:	f8 94       	cli
    36e2:	de bf       	out	0x3e, r29	; 62
    36e4:	0f be       	out	0x3f, r0	; 63
    36e6:	cd bf       	out	0x3d, r28	; 61
    36e8:	df 91       	pop	r29
    36ea:	cf 91       	pop	r28
    36ec:	1f 91       	pop	r17
    36ee:	0f 91       	pop	r16
    36f0:	ff 90       	pop	r15
    36f2:	ef 90       	pop	r14
    36f4:	bf 90       	pop	r11
    36f6:	af 90       	pop	r10
    36f8:	9f 90       	pop	r9
    36fa:	8f 90       	pop	r8
    36fc:	08 95       	ret

000036fe <_ZN5Print5printEli>:
{
  return print((unsigned long) n, base);
}

size_t Print::print(long n, int base)
{
    36fe:	cf 92       	push	r12
    3700:	df 92       	push	r13
    3702:	ef 92       	push	r14
    3704:	ff 92       	push	r15
    3706:	0f 93       	push	r16
    3708:	1f 93       	push	r17
    370a:	cf 93       	push	r28
    370c:	df 93       	push	r29
  if (base == 0) {
    370e:	21 15       	cp	r18, r1
    3710:	31 05       	cpc	r19, r1
    3712:	81 f4       	brne	.+32     	; 0x3734 <_ZN5Print5printEli+0x36>
    return write(n);
    3714:	dc 01       	movw	r26, r24
    3716:	ed 91       	ld	r30, X+
    3718:	fc 91       	ld	r31, X
    371a:	01 90       	ld	r0, Z+
    371c:	f0 81       	ld	r31, Z
    371e:	e0 2d       	mov	r30, r0
    3720:	64 2f       	mov	r22, r20
    }
    return printNumber(n, 10);
  } else {
    return printNumber(n, base);
  }
}
    3722:	df 91       	pop	r29
    3724:	cf 91       	pop	r28
    3726:	1f 91       	pop	r17
    3728:	0f 91       	pop	r16
    372a:	ff 90       	pop	r15
    372c:	ef 90       	pop	r14
    372e:	df 90       	pop	r13
    3730:	cf 90       	pop	r12
}

size_t Print::print(long n, int base)
{
  if (base == 0) {
    return write(n);
    3732:	09 94       	ijmp
  } else if (base == 10) {
    3734:	2a 30       	cpi	r18, 0x0A	; 10
    3736:	31 05       	cpc	r19, r1
    3738:	01 f5       	brne	.+64     	; 0x377a <_ZN5Print5printEli+0x7c>
    if (n < 0) {
    373a:	77 ff       	sbrs	r23, 7
    373c:	1d c0       	rjmp	.+58     	; 0x3778 <_ZN5Print5printEli+0x7a>
    373e:	6a 01       	movw	r12, r20
    3740:	7b 01       	movw	r14, r22
    3742:	ec 01       	movw	r28, r24
      int t = print('-');
    3744:	6d e2       	ldi	r22, 0x2D	; 45
    3746:	0e 94 2f 1b 	call	0x365e	; 0x365e <_ZN5Print5printEc>
    374a:	8c 01       	movw	r16, r24
      n = -n;
      return printNumber(n, 10) + t;
    374c:	44 27       	eor	r20, r20
    374e:	55 27       	eor	r21, r21
    3750:	ba 01       	movw	r22, r20
    3752:	4c 19       	sub	r20, r12
    3754:	5d 09       	sbc	r21, r13
    3756:	6e 09       	sbc	r22, r14
    3758:	7f 09       	sbc	r23, r15
    375a:	2a e0       	ldi	r18, 0x0A	; 10
    375c:	ce 01       	movw	r24, r28
    375e:	0e 94 36 1b 	call	0x366c	; 0x366c <_ZN5Print11printNumberEmh>
    3762:	80 0f       	add	r24, r16
    3764:	91 1f       	adc	r25, r17
    }
    return printNumber(n, 10);
  } else {
    return printNumber(n, base);
  }
}
    3766:	df 91       	pop	r29
    3768:	cf 91       	pop	r28
    376a:	1f 91       	pop	r17
    376c:	0f 91       	pop	r16
    376e:	ff 90       	pop	r15
    3770:	ef 90       	pop	r14
    3772:	df 90       	pop	r13
    3774:	cf 90       	pop	r12
    3776:	08 95       	ret
    if (n < 0) {
      int t = print('-');
      n = -n;
      return printNumber(n, 10) + t;
    }
    return printNumber(n, 10);
    3778:	2a e0       	ldi	r18, 0x0A	; 10
  } else {
    return printNumber(n, base);
  }
}
    377a:	df 91       	pop	r29
    377c:	cf 91       	pop	r28
    377e:	1f 91       	pop	r17
    3780:	0f 91       	pop	r16
    3782:	ff 90       	pop	r15
    3784:	ef 90       	pop	r14
    3786:	df 90       	pop	r13
    3788:	cf 90       	pop	r12
      n = -n;
      return printNumber(n, 10) + t;
    }
    return printNumber(n, 10);
  } else {
    return printNumber(n, base);
    378a:	0c 94 36 1b 	jmp	0x366c	; 0x366c <_ZN5Print11printNumberEmh>

0000378e <_ZN5Print5printEii>:
{
  return print((unsigned long) b, base);
}

size_t Print::print(int n, int base)
{
    378e:	9a 01       	movw	r18, r20
  return print((long) n, base);
    3790:	ab 01       	movw	r20, r22
    3792:	77 0f       	add	r23, r23
    3794:	66 0b       	sbc	r22, r22
    3796:	77 0b       	sbc	r23, r23
    3798:	0c 94 7f 1b 	jmp	0x36fe	; 0x36fe <_ZN5Print5printEli>

0000379c <nothing>:
    #endif
      break;       
#endif
    }
      
    intFunc[interruptNum] = nothing;
    379c:	08 95       	ret

0000379e <attachInterrupt>:
    379e:	82 30       	cpi	r24, 0x02	; 2
    37a0:	e8 f4       	brcc	.+58     	; 0x37dc <attachInterrupt+0x3e>
    37a2:	e8 2f       	mov	r30, r24
    37a4:	f0 e0       	ldi	r31, 0x00	; 0
    37a6:	ee 0f       	add	r30, r30
    37a8:	ff 1f       	adc	r31, r31
    37aa:	e6 5f       	subi	r30, 0xF6	; 246
    37ac:	fe 4f       	sbci	r31, 0xFE	; 254
    37ae:	71 83       	std	Z+1, r23	; 0x01
    37b0:	60 83       	st	Z, r22
    37b2:	81 30       	cpi	r24, 0x01	; 1
    37b4:	41 f0       	breq	.+16     	; 0x37c6 <attachInterrupt+0x28>
    37b6:	80 91 69 00 	lds	r24, 0x0069	; 0x800069 <__TEXT_REGION_LENGTH__+0x7e0069>
    37ba:	8c 7f       	andi	r24, 0xFC	; 252
    37bc:	48 2b       	or	r20, r24
    37be:	40 93 69 00 	sts	0x0069, r20	; 0x800069 <__TEXT_REGION_LENGTH__+0x7e0069>
    37c2:	e8 9a       	sbi	0x1d, 0	; 29
    37c4:	08 95       	ret
    37c6:	80 91 69 00 	lds	r24, 0x0069	; 0x800069 <__TEXT_REGION_LENGTH__+0x7e0069>
    37ca:	83 7f       	andi	r24, 0xF3	; 243
    37cc:	44 0f       	add	r20, r20
    37ce:	55 1f       	adc	r21, r21
    37d0:	44 0f       	add	r20, r20
    37d2:	55 1f       	adc	r21, r21
    37d4:	48 2b       	or	r20, r24
    37d6:	40 93 69 00 	sts	0x0069, r20	; 0x800069 <__TEXT_REGION_LENGTH__+0x7e0069>
    37da:	e9 9a       	sbi	0x1d, 1	; 29
    37dc:	08 95       	ret

000037de <__vector_1>:
IMPLEMENT_ISR(INT6_vect, EXTERNAL_INT_6)
IMPLEMENT_ISR(INT7_vect, EXTERNAL_INT_7)

#else

IMPLEMENT_ISR(INT0_vect, EXTERNAL_INT_0)
    37de:	1f 92       	push	r1
    37e0:	0f 92       	push	r0
    37e2:	0f b6       	in	r0, 0x3f	; 63
    37e4:	0f 92       	push	r0
    37e6:	11 24       	eor	r1, r1
    37e8:	2f 93       	push	r18
    37ea:	3f 93       	push	r19
    37ec:	4f 93       	push	r20
    37ee:	5f 93       	push	r21
    37f0:	6f 93       	push	r22
    37f2:	7f 93       	push	r23
    37f4:	8f 93       	push	r24
    37f6:	9f 93       	push	r25
    37f8:	af 93       	push	r26
    37fa:	bf 93       	push	r27
    37fc:	ef 93       	push	r30
    37fe:	ff 93       	push	r31
    3800:	e0 91 0a 01 	lds	r30, 0x010A	; 0x80010a <intFunc>
    3804:	f0 91 0b 01 	lds	r31, 0x010B	; 0x80010b <intFunc+0x1>
    3808:	09 95       	icall
    380a:	ff 91       	pop	r31
    380c:	ef 91       	pop	r30
    380e:	bf 91       	pop	r27
    3810:	af 91       	pop	r26
    3812:	9f 91       	pop	r25
    3814:	8f 91       	pop	r24
    3816:	7f 91       	pop	r23
    3818:	6f 91       	pop	r22
    381a:	5f 91       	pop	r21
    381c:	4f 91       	pop	r20
    381e:	3f 91       	pop	r19
    3820:	2f 91       	pop	r18
    3822:	0f 90       	pop	r0
    3824:	0f be       	out	0x3f, r0	; 63
    3826:	0f 90       	pop	r0
    3828:	1f 90       	pop	r1
    382a:	18 95       	reti

0000382c <__vector_2>:
IMPLEMENT_ISR(INT1_vect, EXTERNAL_INT_1)
    382c:	1f 92       	push	r1
    382e:	0f 92       	push	r0
    3830:	0f b6       	in	r0, 0x3f	; 63
    3832:	0f 92       	push	r0
    3834:	11 24       	eor	r1, r1
    3836:	2f 93       	push	r18
    3838:	3f 93       	push	r19
    383a:	4f 93       	push	r20
    383c:	5f 93       	push	r21
    383e:	6f 93       	push	r22
    3840:	7f 93       	push	r23
    3842:	8f 93       	push	r24
    3844:	9f 93       	push	r25
    3846:	af 93       	push	r26
    3848:	bf 93       	push	r27
    384a:	ef 93       	push	r30
    384c:	ff 93       	push	r31
    384e:	e0 91 0c 01 	lds	r30, 0x010C	; 0x80010c <intFunc+0x2>
    3852:	f0 91 0d 01 	lds	r31, 0x010D	; 0x80010d <intFunc+0x3>
    3856:	09 95       	icall
    3858:	ff 91       	pop	r31
    385a:	ef 91       	pop	r30
    385c:	bf 91       	pop	r27
    385e:	af 91       	pop	r26
    3860:	9f 91       	pop	r25
    3862:	8f 91       	pop	r24
    3864:	7f 91       	pop	r23
    3866:	6f 91       	pop	r22
    3868:	5f 91       	pop	r21
    386a:	4f 91       	pop	r20
    386c:	3f 91       	pop	r19
    386e:	2f 91       	pop	r18
    3870:	0f 90       	pop	r0
    3872:	0f be       	out	0x3f, r0	; 63
    3874:	0f 90       	pop	r0
    3876:	1f 90       	pop	r1
    3878:	18 95       	reti

0000387a <__vector_16>:
#if defined(TIM0_OVF_vect)
ISR(TIM0_OVF_vect)
#else
ISR(TIMER0_OVF_vect)
#endif
{
    387a:	1f 92       	push	r1
    387c:	0f 92       	push	r0
    387e:	0f b6       	in	r0, 0x3f	; 63
    3880:	0f 92       	push	r0
    3882:	11 24       	eor	r1, r1
    3884:	2f 93       	push	r18
    3886:	3f 93       	push	r19
    3888:	8f 93       	push	r24
    388a:	9f 93       	push	r25
    388c:	af 93       	push	r26
    388e:	bf 93       	push	r27
	// copy these to local variables so they can be stored in registers
	// (volatile variables must be read from memory on every access)
	unsigned long m = timer0_millis;
    3890:	80 91 52 06 	lds	r24, 0x0652	; 0x800652 <timer0_millis>
    3894:	90 91 53 06 	lds	r25, 0x0653	; 0x800653 <timer0_millis+0x1>
    3898:	a0 91 54 06 	lds	r26, 0x0654	; 0x800654 <timer0_millis+0x2>
    389c:	b0 91 55 06 	lds	r27, 0x0655	; 0x800655 <timer0_millis+0x3>
	unsigned char f = timer0_fract;
    38a0:	30 91 51 06 	lds	r19, 0x0651	; 0x800651 <timer0_fract>

	m += MILLIS_INC;
	f += FRACT_INC;
    38a4:	23 e0       	ldi	r18, 0x03	; 3
    38a6:	23 0f       	add	r18, r19
	if (f >= FRACT_MAX) {
    38a8:	2d 37       	cpi	r18, 0x7D	; 125
    38aa:	20 f4       	brcc	.+8      	; 0x38b4 <__vector_16+0x3a>
	// copy these to local variables so they can be stored in registers
	// (volatile variables must be read from memory on every access)
	unsigned long m = timer0_millis;
	unsigned char f = timer0_fract;

	m += MILLIS_INC;
    38ac:	01 96       	adiw	r24, 0x01	; 1
    38ae:	a1 1d       	adc	r26, r1
    38b0:	b1 1d       	adc	r27, r1
    38b2:	05 c0       	rjmp	.+10     	; 0x38be <__vector_16+0x44>
	f += FRACT_INC;
	if (f >= FRACT_MAX) {
		f -= FRACT_MAX;
    38b4:	26 e8       	ldi	r18, 0x86	; 134
    38b6:	23 0f       	add	r18, r19
		m += 1;
    38b8:	02 96       	adiw	r24, 0x02	; 2
    38ba:	a1 1d       	adc	r26, r1
    38bc:	b1 1d       	adc	r27, r1
	}

	timer0_fract = f;
    38be:	20 93 51 06 	sts	0x0651, r18	; 0x800651 <timer0_fract>
	timer0_millis = m;
    38c2:	80 93 52 06 	sts	0x0652, r24	; 0x800652 <timer0_millis>
    38c6:	90 93 53 06 	sts	0x0653, r25	; 0x800653 <timer0_millis+0x1>
    38ca:	a0 93 54 06 	sts	0x0654, r26	; 0x800654 <timer0_millis+0x2>
    38ce:	b0 93 55 06 	sts	0x0655, r27	; 0x800655 <timer0_millis+0x3>
	timer0_overflow_count++;
    38d2:	80 91 56 06 	lds	r24, 0x0656	; 0x800656 <timer0_overflow_count>
    38d6:	90 91 57 06 	lds	r25, 0x0657	; 0x800657 <timer0_overflow_count+0x1>
    38da:	a0 91 58 06 	lds	r26, 0x0658	; 0x800658 <timer0_overflow_count+0x2>
    38de:	b0 91 59 06 	lds	r27, 0x0659	; 0x800659 <timer0_overflow_count+0x3>
    38e2:	01 96       	adiw	r24, 0x01	; 1
    38e4:	a1 1d       	adc	r26, r1
    38e6:	b1 1d       	adc	r27, r1
    38e8:	80 93 56 06 	sts	0x0656, r24	; 0x800656 <timer0_overflow_count>
    38ec:	90 93 57 06 	sts	0x0657, r25	; 0x800657 <timer0_overflow_count+0x1>
    38f0:	a0 93 58 06 	sts	0x0658, r26	; 0x800658 <timer0_overflow_count+0x2>
    38f4:	b0 93 59 06 	sts	0x0659, r27	; 0x800659 <timer0_overflow_count+0x3>
}
    38f8:	bf 91       	pop	r27
    38fa:	af 91       	pop	r26
    38fc:	9f 91       	pop	r25
    38fe:	8f 91       	pop	r24
    3900:	3f 91       	pop	r19
    3902:	2f 91       	pop	r18
    3904:	0f 90       	pop	r0
    3906:	0f be       	out	0x3f, r0	; 63
    3908:	0f 90       	pop	r0
    390a:	1f 90       	pop	r1
    390c:	18 95       	reti

0000390e <millis>:

unsigned long millis()
{
	unsigned long m;
	uint8_t oldSREG = SREG;
    390e:	2f b7       	in	r18, 0x3f	; 63

	// disable interrupts while we read timer0_millis or we might get an
	// inconsistent value (e.g. in the middle of a write to timer0_millis)
	cli();
    3910:	f8 94       	cli
	m = timer0_millis;
    3912:	60 91 52 06 	lds	r22, 0x0652	; 0x800652 <timer0_millis>
    3916:	70 91 53 06 	lds	r23, 0x0653	; 0x800653 <timer0_millis+0x1>
    391a:	80 91 54 06 	lds	r24, 0x0654	; 0x800654 <timer0_millis+0x2>
    391e:	90 91 55 06 	lds	r25, 0x0655	; 0x800655 <timer0_millis+0x3>
	SREG = oldSREG;
    3922:	2f bf       	out	0x3f, r18	; 63

	return m;
}
    3924:	08 95       	ret

00003926 <micros>:

unsigned long micros() {
	unsigned long m;
	uint8_t oldSREG = SREG, t;
    3926:	3f b7       	in	r19, 0x3f	; 63
	
	cli();
    3928:	f8 94       	cli
	m = timer0_overflow_count;
    392a:	80 91 56 06 	lds	r24, 0x0656	; 0x800656 <timer0_overflow_count>
    392e:	90 91 57 06 	lds	r25, 0x0657	; 0x800657 <timer0_overflow_count+0x1>
    3932:	a0 91 58 06 	lds	r26, 0x0658	; 0x800658 <timer0_overflow_count+0x2>
    3936:	b0 91 59 06 	lds	r27, 0x0659	; 0x800659 <timer0_overflow_count+0x3>
#if defined(TCNT0)
	t = TCNT0;
    393a:	26 b5       	in	r18, 0x26	; 38
#else
	#error TIMER 0 not defined
#endif

#ifdef TIFR0
	if ((TIFR0 & _BV(TOV0)) && (t < 255))
    393c:	a8 9b       	sbis	0x15, 0	; 21
    393e:	05 c0       	rjmp	.+10     	; 0x394a <micros+0x24>
    3940:	2f 3f       	cpi	r18, 0xFF	; 255
    3942:	19 f0       	breq	.+6      	; 0x394a <micros+0x24>
		m++;
    3944:	01 96       	adiw	r24, 0x01	; 1
    3946:	a1 1d       	adc	r26, r1
    3948:	b1 1d       	adc	r27, r1
#else
	if ((TIFR & _BV(TOV0)) && (t < 255))
		m++;
#endif

	SREG = oldSREG;
    394a:	3f bf       	out	0x3f, r19	; 63
	
	return ((m << 8) + t) * (64 / clockCyclesPerMicrosecond());
    394c:	ba 2f       	mov	r27, r26
    394e:	a9 2f       	mov	r26, r25
    3950:	98 2f       	mov	r25, r24
    3952:	88 27       	eor	r24, r24
    3954:	82 0f       	add	r24, r18
    3956:	91 1d       	adc	r25, r1
    3958:	a1 1d       	adc	r26, r1
    395a:	b1 1d       	adc	r27, r1
    395c:	bc 01       	movw	r22, r24
    395e:	cd 01       	movw	r24, r26
    3960:	42 e0       	ldi	r20, 0x02	; 2
    3962:	66 0f       	add	r22, r22
    3964:	77 1f       	adc	r23, r23
    3966:	88 1f       	adc	r24, r24
    3968:	99 1f       	adc	r25, r25
    396a:	4a 95       	dec	r20
    396c:	d1 f7       	brne	.-12     	; 0x3962 <micros+0x3c>
}
    396e:	08 95       	ret

00003970 <delay>:

void delay(unsigned long ms)
{
    3970:	8f 92       	push	r8
    3972:	9f 92       	push	r9
    3974:	af 92       	push	r10
    3976:	bf 92       	push	r11
    3978:	cf 92       	push	r12
    397a:	df 92       	push	r13
    397c:	ef 92       	push	r14
    397e:	ff 92       	push	r15
    3980:	6b 01       	movw	r12, r22
    3982:	7c 01       	movw	r14, r24
	uint32_t start = micros();
    3984:	0e 94 93 1c 	call	0x3926	; 0x3926 <micros>
    3988:	4b 01       	movw	r8, r22
    398a:	5c 01       	movw	r10, r24

	while (ms > 0) {
    398c:	c1 14       	cp	r12, r1
    398e:	d1 04       	cpc	r13, r1
    3990:	e1 04       	cpc	r14, r1
    3992:	f1 04       	cpc	r15, r1
    3994:	01 f1       	breq	.+64     	; 0x39d6 <delay+0x66>
		yield();
    3996:	0e 94 f1 1f 	call	0x3fe2	; 0x3fe2 <yield>
		while ( ms > 0 && (micros() - start) >= 1000) {
    399a:	0e 94 93 1c 	call	0x3926	; 0x3926 <micros>
    399e:	dc 01       	movw	r26, r24
    39a0:	cb 01       	movw	r24, r22
    39a2:	88 19       	sub	r24, r8
    39a4:	99 09       	sbc	r25, r9
    39a6:	aa 09       	sbc	r26, r10
    39a8:	bb 09       	sbc	r27, r11
    39aa:	88 3e       	cpi	r24, 0xE8	; 232
    39ac:	93 40       	sbci	r25, 0x03	; 3
    39ae:	a1 05       	cpc	r26, r1
    39b0:	b1 05       	cpc	r27, r1
    39b2:	60 f3       	brcs	.-40     	; 0x398c <delay+0x1c>
			ms--;
    39b4:	21 e0       	ldi	r18, 0x01	; 1
    39b6:	c2 1a       	sub	r12, r18
    39b8:	d1 08       	sbc	r13, r1
    39ba:	e1 08       	sbc	r14, r1
    39bc:	f1 08       	sbc	r15, r1
			start += 1000;
    39be:	88 ee       	ldi	r24, 0xE8	; 232
    39c0:	88 0e       	add	r8, r24
    39c2:	83 e0       	ldi	r24, 0x03	; 3
    39c4:	98 1e       	adc	r9, r24
    39c6:	a1 1c       	adc	r10, r1
    39c8:	b1 1c       	adc	r11, r1
{
	uint32_t start = micros();

	while (ms > 0) {
		yield();
		while ( ms > 0 && (micros() - start) >= 1000) {
    39ca:	c1 14       	cp	r12, r1
    39cc:	d1 04       	cpc	r13, r1
    39ce:	e1 04       	cpc	r14, r1
    39d0:	f1 04       	cpc	r15, r1
    39d2:	19 f7       	brne	.-58     	; 0x399a <delay+0x2a>
    39d4:	db cf       	rjmp	.-74     	; 0x398c <delay+0x1c>
			ms--;
			start += 1000;
		}
	}
}
    39d6:	ff 90       	pop	r15
    39d8:	ef 90       	pop	r14
    39da:	df 90       	pop	r13
    39dc:	cf 90       	pop	r12
    39de:	bf 90       	pop	r11
    39e0:	af 90       	pop	r10
    39e2:	9f 90       	pop	r9
    39e4:	8f 90       	pop	r8
    39e6:	08 95       	ret

000039e8 <delayMicroseconds>:
#elif F_CPU >= 16000000L
	// for the 16 MHz clock on most Arduino boards

	// for a one-microsecond delay, simply return.  the overhead
	// of the function call takes 14 (16) cycles, which is 1us
	if (us <= 1) return; //  = 3 cycles, (4 when true)
    39e8:	82 30       	cpi	r24, 0x02	; 2
    39ea:	91 05       	cpc	r25, r1
    39ec:	38 f0       	brcs	.+14     	; 0x39fc <delayMicroseconds+0x14>

	// the following loop takes 1/4 of a microsecond (4 cycles)
	// per iteration, so execute it four times for each microsecond of
	// delay requested.
	us <<= 2; // x4 us, = 4 cycles
    39ee:	88 0f       	add	r24, r24
    39f0:	99 1f       	adc	r25, r25
    39f2:	88 0f       	add	r24, r24
    39f4:	99 1f       	adc	r25, r25

	// account for the time taken in the preceeding commands.
	// we just burned 19 (21) cycles above, remove 5, (5*4=20)
	// us is at least 8 so we can substract 5
	us -= 5; // = 2 cycles,
    39f6:	05 97       	sbiw	r24, 0x05	; 5
	

#endif

	// busy wait
	__asm__ __volatile__ (
    39f8:	01 97       	sbiw	r24, 0x01	; 1
    39fa:	f1 f7       	brne	.-4      	; 0x39f8 <delayMicroseconds+0x10>
    39fc:	08 95       	ret

000039fe <init>:

void init()
{
	// this needs to be called before setup() or some functions won't
	// work there
	sei();
    39fe:	78 94       	sei
	
	// on the ATmega168, timer 0 is also used for fast hardware pwm
	// (using phase-correct PWM would mean that timer 0 overflowed half as often
	// resulting in different millis() behavior on the ATmega8 and ATmega168)
#if defined(TCCR0A) && defined(WGM01)
	sbi(TCCR0A, WGM01);
    3a00:	84 b5       	in	r24, 0x24	; 36
    3a02:	82 60       	ori	r24, 0x02	; 2
    3a04:	84 bd       	out	0x24, r24	; 36
	sbi(TCCR0A, WGM00);
    3a06:	84 b5       	in	r24, 0x24	; 36
    3a08:	81 60       	ori	r24, 0x01	; 1
    3a0a:	84 bd       	out	0x24, r24	; 36
	// this combination is for the standard atmega8
	sbi(TCCR0, CS01);
	sbi(TCCR0, CS00);
#elif defined(TCCR0B) && defined(CS01) && defined(CS00)
	// this combination is for the standard 168/328/1280/2560
	sbi(TCCR0B, CS01);
    3a0c:	85 b5       	in	r24, 0x25	; 37
    3a0e:	82 60       	ori	r24, 0x02	; 2
    3a10:	85 bd       	out	0x25, r24	; 37
	sbi(TCCR0B, CS00);
    3a12:	85 b5       	in	r24, 0x25	; 37
    3a14:	81 60       	ori	r24, 0x01	; 1
    3a16:	85 bd       	out	0x25, r24	; 37

	// enable timer 0 overflow interrupt
#if defined(TIMSK) && defined(TOIE0)
	sbi(TIMSK, TOIE0);
#elif defined(TIMSK0) && defined(TOIE0)
	sbi(TIMSK0, TOIE0);
    3a18:	ee e6       	ldi	r30, 0x6E	; 110
    3a1a:	f0 e0       	ldi	r31, 0x00	; 0
    3a1c:	80 81       	ld	r24, Z
    3a1e:	81 60       	ori	r24, 0x01	; 1
    3a20:	80 83       	st	Z, r24
	// this is better for motors as it ensures an even waveform
	// note, however, that fast pwm mode can achieve a frequency of up
	// 8 MHz (with a 16 MHz clock) at 50% duty cycle

#if defined(TCCR1B) && defined(CS11) && defined(CS10)
	TCCR1B = 0;
    3a22:	e1 e8       	ldi	r30, 0x81	; 129
    3a24:	f0 e0       	ldi	r31, 0x00	; 0
    3a26:	10 82       	st	Z, r1

	// set timer 1 prescale factor to 64
	sbi(TCCR1B, CS11);
    3a28:	80 81       	ld	r24, Z
    3a2a:	82 60       	ori	r24, 0x02	; 2
    3a2c:	80 83       	st	Z, r24
#if F_CPU >= 8000000L
	sbi(TCCR1B, CS10);
    3a2e:	80 81       	ld	r24, Z
    3a30:	81 60       	ori	r24, 0x01	; 1
    3a32:	80 83       	st	Z, r24
	sbi(TCCR1, CS10);
#endif
#endif
	// put timer 1 in 8-bit phase correct pwm mode
#if defined(TCCR1A) && defined(WGM10)
	sbi(TCCR1A, WGM10);
    3a34:	e0 e8       	ldi	r30, 0x80	; 128
    3a36:	f0 e0       	ldi	r31, 0x00	; 0
    3a38:	80 81       	ld	r24, Z
    3a3a:	81 60       	ori	r24, 0x01	; 1
    3a3c:	80 83       	st	Z, r24

	// set timer 2 prescale factor to 64
#if defined(TCCR2) && defined(CS22)
	sbi(TCCR2, CS22);
#elif defined(TCCR2B) && defined(CS22)
	sbi(TCCR2B, CS22);
    3a3e:	e1 eb       	ldi	r30, 0xB1	; 177
    3a40:	f0 e0       	ldi	r31, 0x00	; 0
    3a42:	80 81       	ld	r24, Z
    3a44:	84 60       	ori	r24, 0x04	; 4
    3a46:	80 83       	st	Z, r24

	// configure timer 2 for phase correct pwm (8-bit)
#if defined(TCCR2) && defined(WGM20)
	sbi(TCCR2, WGM20);
#elif defined(TCCR2A) && defined(WGM20)
	sbi(TCCR2A, WGM20);
    3a48:	e0 eb       	ldi	r30, 0xB0	; 176
    3a4a:	f0 e0       	ldi	r31, 0x00	; 0
    3a4c:	80 81       	ld	r24, Z
    3a4e:	81 60       	ori	r24, 0x01	; 1
    3a50:	80 83       	st	Z, r24
#endif

#if defined(ADCSRA)
	// set a2d prescaler so we are inside the desired 50-200 KHz range.
	#if F_CPU >= 16000000 // 16 MHz / 128 = 125 KHz
		sbi(ADCSRA, ADPS2);
    3a52:	ea e7       	ldi	r30, 0x7A	; 122
    3a54:	f0 e0       	ldi	r31, 0x00	; 0
    3a56:	80 81       	ld	r24, Z
    3a58:	84 60       	ori	r24, 0x04	; 4
    3a5a:	80 83       	st	Z, r24
		sbi(ADCSRA, ADPS1);
    3a5c:	80 81       	ld	r24, Z
    3a5e:	82 60       	ori	r24, 0x02	; 2
    3a60:	80 83       	st	Z, r24
		sbi(ADCSRA, ADPS0);
    3a62:	80 81       	ld	r24, Z
    3a64:	81 60       	ori	r24, 0x01	; 1
    3a66:	80 83       	st	Z, r24
		cbi(ADCSRA, ADPS2);
		cbi(ADCSRA, ADPS1);
		sbi(ADCSRA, ADPS0);
	#endif
	// enable a2d conversions
	sbi(ADCSRA, ADEN);
    3a68:	80 81       	ld	r24, Z
    3a6a:	80 68       	ori	r24, 0x80	; 128
    3a6c:	80 83       	st	Z, r24
	// here so they can be used as normal digital i/o; they will be
	// reconnected in Serial.begin()
#if defined(UCSRB)
	UCSRB = 0;
#elif defined(UCSR0B)
	UCSR0B = 0;
    3a6e:	10 92 c1 00 	sts	0x00C1, r1	; 0x8000c1 <__TEXT_REGION_LENGTH__+0x7e00c1>
    3a72:	08 95       	ret

00003a74 <analogRead>:
#elif defined(__AVR_ATmega32U4__)
	if (pin >= 18) pin -= 18; // allow for channel or pin numbers
#elif defined(__AVR_ATmega1284__) || defined(__AVR_ATmega1284P__) || defined(__AVR_ATmega644__) || defined(__AVR_ATmega644A__) || defined(__AVR_ATmega644P__) || defined(__AVR_ATmega644PA__)
	if (pin >= 24) pin -= 24; // allow for channel or pin numbers
#else
	if (pin >= 14) pin -= 14; // allow for channel or pin numbers
    3a74:	8e 30       	cpi	r24, 0x0E	; 14
    3a76:	08 f0       	brcs	.+2      	; 0x3a7a <analogRead+0x6>
    3a78:	8e 50       	subi	r24, 0x0E	; 14
	// to 0 (the default).
#if defined(ADMUX)
#if defined(__AVR_ATtiny25__) || defined(__AVR_ATtiny45__) || defined(__AVR_ATtiny85__)
	ADMUX = (analog_reference << 4) | (pin & 0x07);
#else
	ADMUX = (analog_reference << 6) | (pin & 0x07);
    3a7a:	20 91 0e 01 	lds	r18, 0x010E	; 0x80010e <analog_reference>
    3a7e:	90 e4       	ldi	r25, 0x40	; 64
    3a80:	29 9f       	mul	r18, r25
    3a82:	90 01       	movw	r18, r0
    3a84:	11 24       	eor	r1, r1
    3a86:	87 70       	andi	r24, 0x07	; 7
    3a88:	82 2b       	or	r24, r18
    3a8a:	80 93 7c 00 	sts	0x007C, r24	; 0x80007c <__TEXT_REGION_LENGTH__+0x7e007c>
	// without a delay, we seem to read from the wrong channel
	//delay(1);

#if defined(ADCSRA) && defined(ADCL)
	// start the conversion
	sbi(ADCSRA, ADSC);
    3a8e:	80 91 7a 00 	lds	r24, 0x007A	; 0x80007a <__TEXT_REGION_LENGTH__+0x7e007a>
    3a92:	80 64       	ori	r24, 0x40	; 64
    3a94:	80 93 7a 00 	sts	0x007A, r24	; 0x80007a <__TEXT_REGION_LENGTH__+0x7e007a>

	// ADSC is cleared when the conversion finishes
	while (bit_is_set(ADCSRA, ADSC));
    3a98:	80 91 7a 00 	lds	r24, 0x007A	; 0x80007a <__TEXT_REGION_LENGTH__+0x7e007a>
    3a9c:	86 fd       	sbrc	r24, 6
    3a9e:	fc cf       	rjmp	.-8      	; 0x3a98 <analogRead+0x24>

	// we have to read ADCL first; doing so locks both ADCL
	// and ADCH until ADCH is read.  reading ADCL second would
	// cause the results of each conversion to be discarded,
	// as ADCL and ADCH would be locked when it completed.
	low  = ADCL;
    3aa0:	80 91 78 00 	lds	r24, 0x0078	; 0x800078 <__TEXT_REGION_LENGTH__+0x7e0078>
	high = ADCH;
    3aa4:	20 91 79 00 	lds	r18, 0x0079	; 0x800079 <__TEXT_REGION_LENGTH__+0x7e0079>
	low  = 0;
	high = 0;
#endif

	// combine the two bytes
	return (high << 8) | low;
    3aa8:	90 e0       	ldi	r25, 0x00	; 0
}
    3aaa:	92 2b       	or	r25, r18
    3aac:	08 95       	ret

00003aae <analogWrite>:
// Right now, PWM output only works on the pins with
// hardware support.  These are defined in the appropriate
// pins_*.c file.  For the rest of the pins, we default
// to digital output.
void analogWrite(uint8_t pin, int val)
{
    3aae:	1f 93       	push	r17
    3ab0:	cf 93       	push	r28
    3ab2:	df 93       	push	r29
    3ab4:	18 2f       	mov	r17, r24
    3ab6:	eb 01       	movw	r28, r22
	// We need to make sure the PWM output is enabled for those pins
	// that support it, as we turn it off when digitally reading or
	// writing with them.  Also, make sure the pin is in output mode
	// for consistenty with Wiring, which doesn't require a pinMode
	// call for the analog output pins.
	pinMode(pin, OUTPUT);
    3ab8:	61 e0       	ldi	r22, 0x01	; 1
    3aba:	0e 94 df 1d 	call	0x3bbe	; 0x3bbe <pinMode>
	if (val == 0)
    3abe:	20 97       	sbiw	r28, 0x00	; 0
    3ac0:	11 f4       	brne	.+4      	; 0x3ac6 <analogWrite+0x18>
	{
		digitalWrite(pin, LOW);
    3ac2:	60 e0       	ldi	r22, 0x00	; 0
    3ac4:	04 c0       	rjmp	.+8      	; 0x3ace <analogWrite+0x20>
	}
	else if (val == 255)
    3ac6:	cf 3f       	cpi	r28, 0xFF	; 255
    3ac8:	d1 05       	cpc	r29, r1
    3aca:	39 f4       	brne	.+14     	; 0x3ada <analogWrite+0x2c>
	{
		digitalWrite(pin, HIGH);
    3acc:	61 e0       	ldi	r22, 0x01	; 1
    3ace:	81 2f       	mov	r24, r17
				} else {
					digitalWrite(pin, HIGH);
				}
		}
	}
}
    3ad0:	df 91       	pop	r29
    3ad2:	cf 91       	pop	r28
    3ad4:	1f 91       	pop	r17
	{
		digitalWrite(pin, LOW);
	}
	else if (val == 255)
	{
		digitalWrite(pin, HIGH);
    3ad6:	0c 94 1b 1e 	jmp	0x3c36	; 0x3c36 <digitalWrite>
	}
	else
	{
		switch(digitalPinToTimer(pin))
    3ada:	e1 2f       	mov	r30, r17
    3adc:	f0 e0       	ldi	r31, 0x00	; 0
    3ade:	e8 57       	subi	r30, 0x78	; 120
    3ae0:	ff 4f       	sbci	r31, 0xFF	; 255
    3ae2:	e4 91       	lpm	r30, Z
    3ae4:	e3 30       	cpi	r30, 0x03	; 3
    3ae6:	f9 f0       	breq	.+62     	; 0x3b26 <analogWrite+0x78>
    3ae8:	48 f4       	brcc	.+18     	; 0x3afc <analogWrite+0x4e>
    3aea:	e1 30       	cpi	r30, 0x01	; 1
    3aec:	b9 f0       	breq	.+46     	; 0x3b1c <analogWrite+0x6e>
    3aee:	e2 30       	cpi	r30, 0x02	; 2
    3af0:	a1 f5       	brne	.+104    	; 0x3b5a <analogWrite+0xac>
			#endif

			#if defined(TCCR0A) && defined(COM0B1)
			case TIMER0B:
				// connect pwm to pin on timer 0, channel B
				sbi(TCCR0A, COM0B1);
    3af2:	84 b5       	in	r24, 0x24	; 36
    3af4:	80 62       	ori	r24, 0x20	; 32
    3af6:	84 bd       	out	0x24, r24	; 36
				OCR0B = val; // set pwm duty
    3af8:	c8 bd       	out	0x28, r28	; 40
				break;
    3afa:	34 c0       	rjmp	.+104    	; 0x3b64 <analogWrite+0xb6>
	{
		digitalWrite(pin, HIGH);
	}
	else
	{
		switch(digitalPinToTimer(pin))
    3afc:	e7 30       	cpi	r30, 0x07	; 7
    3afe:	e9 f0       	breq	.+58     	; 0x3b3a <analogWrite+0x8c>
    3b00:	e8 30       	cpi	r30, 0x08	; 8
    3b02:	19 f1       	breq	.+70     	; 0x3b4a <analogWrite+0x9c>
    3b04:	e4 30       	cpi	r30, 0x04	; 4
    3b06:	49 f5       	brne	.+82     	; 0x3b5a <analogWrite+0xac>
			#endif

			#if defined(TCCR1A) && defined(COM1B1)
			case TIMER1B:
				// connect pwm to pin on timer 1, channel B
				sbi(TCCR1A, COM1B1);
    3b08:	80 91 80 00 	lds	r24, 0x0080	; 0x800080 <__TEXT_REGION_LENGTH__+0x7e0080>
    3b0c:	80 62       	ori	r24, 0x20	; 32
    3b0e:	80 93 80 00 	sts	0x0080, r24	; 0x800080 <__TEXT_REGION_LENGTH__+0x7e0080>
				OCR1B = val; // set pwm duty
    3b12:	d0 93 8b 00 	sts	0x008B, r29	; 0x80008b <__TEXT_REGION_LENGTH__+0x7e008b>
    3b16:	c0 93 8a 00 	sts	0x008A, r28	; 0x80008a <__TEXT_REGION_LENGTH__+0x7e008a>
				break;
    3b1a:	24 c0       	rjmp	.+72     	; 0x3b64 <analogWrite+0xb6>
			#endif

			#if defined(TCCR0A) && defined(COM0A1)
			case TIMER0A:
				// connect pwm to pin on timer 0, channel A
				sbi(TCCR0A, COM0A1);
    3b1c:	84 b5       	in	r24, 0x24	; 36
    3b1e:	80 68       	ori	r24, 0x80	; 128
    3b20:	84 bd       	out	0x24, r24	; 36
				OCR0A = val; // set pwm duty
    3b22:	c7 bd       	out	0x27, r28	; 39
				break;
    3b24:	1f c0       	rjmp	.+62     	; 0x3b64 <analogWrite+0xb6>
			#endif

			#if defined(TCCR1A) && defined(COM1A1)
			case TIMER1A:
				// connect pwm to pin on timer 1, channel A
				sbi(TCCR1A, COM1A1);
    3b26:	80 91 80 00 	lds	r24, 0x0080	; 0x800080 <__TEXT_REGION_LENGTH__+0x7e0080>
    3b2a:	80 68       	ori	r24, 0x80	; 128
    3b2c:	80 93 80 00 	sts	0x0080, r24	; 0x800080 <__TEXT_REGION_LENGTH__+0x7e0080>
				OCR1A = val; // set pwm duty
    3b30:	d0 93 89 00 	sts	0x0089, r29	; 0x800089 <__TEXT_REGION_LENGTH__+0x7e0089>
    3b34:	c0 93 88 00 	sts	0x0088, r28	; 0x800088 <__TEXT_REGION_LENGTH__+0x7e0088>
				break;
    3b38:	15 c0       	rjmp	.+42     	; 0x3b64 <analogWrite+0xb6>
			#endif

			#if defined(TCCR2A) && defined(COM2A1)
			case TIMER2A:
				// connect pwm to pin on timer 2, channel A
				sbi(TCCR2A, COM2A1);
    3b3a:	80 91 b0 00 	lds	r24, 0x00B0	; 0x8000b0 <__TEXT_REGION_LENGTH__+0x7e00b0>
    3b3e:	80 68       	ori	r24, 0x80	; 128
    3b40:	80 93 b0 00 	sts	0x00B0, r24	; 0x8000b0 <__TEXT_REGION_LENGTH__+0x7e00b0>
				OCR2A = val; // set pwm duty
    3b44:	c0 93 b3 00 	sts	0x00B3, r28	; 0x8000b3 <__TEXT_REGION_LENGTH__+0x7e00b3>
				break;
    3b48:	0d c0       	rjmp	.+26     	; 0x3b64 <analogWrite+0xb6>
			#endif

			#if defined(TCCR2A) && defined(COM2B1)
			case TIMER2B:
				// connect pwm to pin on timer 2, channel B
				sbi(TCCR2A, COM2B1);
    3b4a:	80 91 b0 00 	lds	r24, 0x00B0	; 0x8000b0 <__TEXT_REGION_LENGTH__+0x7e00b0>
    3b4e:	80 62       	ori	r24, 0x20	; 32
    3b50:	80 93 b0 00 	sts	0x00B0, r24	; 0x8000b0 <__TEXT_REGION_LENGTH__+0x7e00b0>
				OCR2B = val; // set pwm duty
    3b54:	c0 93 b4 00 	sts	0x00B4, r28	; 0x8000b4 <__TEXT_REGION_LENGTH__+0x7e00b4>
				break;
    3b58:	05 c0       	rjmp	.+10     	; 0x3b64 <analogWrite+0xb6>
				break;
			#endif

			case NOT_ON_TIMER:
			default:
				if (val < 128) {
    3b5a:	c0 38       	cpi	r28, 0x80	; 128
    3b5c:	d1 05       	cpc	r29, r1
    3b5e:	0c f0       	brlt	.+2      	; 0x3b62 <analogWrite+0xb4>
    3b60:	b5 cf       	rjmp	.-150    	; 0x3acc <analogWrite+0x1e>
    3b62:	af cf       	rjmp	.-162    	; 0x3ac2 <analogWrite+0x14>
				} else {
					digitalWrite(pin, HIGH);
				}
		}
	}
}
    3b64:	df 91       	pop	r29
    3b66:	cf 91       	pop	r28
    3b68:	1f 91       	pop	r17
    3b6a:	08 95       	ret

00003b6c <turnOffPWM>:
//
//static inline void turnOffPWM(uint8_t timer) __attribute__ ((always_inline));
//static inline void turnOffPWM(uint8_t timer)
static void turnOffPWM(uint8_t timer)
{
	switch (timer)
    3b6c:	83 30       	cpi	r24, 0x03	; 3
    3b6e:	81 f0       	breq	.+32     	; 0x3b90 <turnOffPWM+0x24>
    3b70:	28 f4       	brcc	.+10     	; 0x3b7c <turnOffPWM+0x10>
    3b72:	81 30       	cpi	r24, 0x01	; 1
    3b74:	99 f0       	breq	.+38     	; 0x3b9c <turnOffPWM+0x30>
    3b76:	82 30       	cpi	r24, 0x02	; 2
    3b78:	a1 f0       	breq	.+40     	; 0x3ba2 <turnOffPWM+0x36>
    3b7a:	08 95       	ret
    3b7c:	87 30       	cpi	r24, 0x07	; 7
    3b7e:	a9 f0       	breq	.+42     	; 0x3baa <turnOffPWM+0x3e>
    3b80:	88 30       	cpi	r24, 0x08	; 8
    3b82:	b9 f0       	breq	.+46     	; 0x3bb2 <turnOffPWM+0x46>
    3b84:	84 30       	cpi	r24, 0x04	; 4
    3b86:	d1 f4       	brne	.+52     	; 0x3bbc <turnOffPWM+0x50>
	{
		#if defined(TCCR1A) && defined(COM1A1)
		case TIMER1A:   cbi(TCCR1A, COM1A1);    break;
		#endif
		#if defined(TCCR1A) && defined(COM1B1)
		case TIMER1B:   cbi(TCCR1A, COM1B1);    break;
    3b88:	80 91 80 00 	lds	r24, 0x0080	; 0x800080 <__TEXT_REGION_LENGTH__+0x7e0080>
    3b8c:	8f 7d       	andi	r24, 0xDF	; 223
    3b8e:	03 c0       	rjmp	.+6      	; 0x3b96 <turnOffPWM+0x2a>
static void turnOffPWM(uint8_t timer)
{
	switch (timer)
	{
		#if defined(TCCR1A) && defined(COM1A1)
		case TIMER1A:   cbi(TCCR1A, COM1A1);    break;
    3b90:	80 91 80 00 	lds	r24, 0x0080	; 0x800080 <__TEXT_REGION_LENGTH__+0x7e0080>
    3b94:	8f 77       	andi	r24, 0x7F	; 127
		#endif
		#if defined(TCCR1A) && defined(COM1B1)
		case TIMER1B:   cbi(TCCR1A, COM1B1);    break;
    3b96:	80 93 80 00 	sts	0x0080, r24	; 0x800080 <__TEXT_REGION_LENGTH__+0x7e0080>
    3b9a:	08 95       	ret
		#if defined(TCCR2) && defined(COM21)
		case  TIMER2:   cbi(TCCR2, COM21);      break;
		#endif
		
		#if defined(TCCR0A) && defined(COM0A1)
		case  TIMER0A:  cbi(TCCR0A, COM0A1);    break;
    3b9c:	84 b5       	in	r24, 0x24	; 36
    3b9e:	8f 77       	andi	r24, 0x7F	; 127
    3ba0:	02 c0       	rjmp	.+4      	; 0x3ba6 <turnOffPWM+0x3a>
		#endif
		
		#if defined(TCCR0A) && defined(COM0B1)
		case  TIMER0B:  cbi(TCCR0A, COM0B1);    break;
    3ba2:	84 b5       	in	r24, 0x24	; 36
    3ba4:	8f 7d       	andi	r24, 0xDF	; 223
    3ba6:	84 bd       	out	0x24, r24	; 36
    3ba8:	08 95       	ret
		#endif
		#if defined(TCCR2A) && defined(COM2A1)
		case  TIMER2A:  cbi(TCCR2A, COM2A1);    break;
    3baa:	80 91 b0 00 	lds	r24, 0x00B0	; 0x8000b0 <__TEXT_REGION_LENGTH__+0x7e00b0>
    3bae:	8f 77       	andi	r24, 0x7F	; 127
    3bb0:	03 c0       	rjmp	.+6      	; 0x3bb8 <turnOffPWM+0x4c>
		#endif
		#if defined(TCCR2A) && defined(COM2B1)
		case  TIMER2B:  cbi(TCCR2A, COM2B1);    break;
    3bb2:	80 91 b0 00 	lds	r24, 0x00B0	; 0x8000b0 <__TEXT_REGION_LENGTH__+0x7e00b0>
    3bb6:	8f 7d       	andi	r24, 0xDF	; 223
    3bb8:	80 93 b0 00 	sts	0x00B0, r24	; 0x8000b0 <__TEXT_REGION_LENGTH__+0x7e00b0>
    3bbc:	08 95       	ret

00003bbe <pinMode>:
#define ARDUINO_MAIN
#include "wiring_private.h"
#include "pins_arduino.h"

void pinMode(uint8_t pin, uint8_t mode)
{
    3bbe:	cf 93       	push	r28
    3bc0:	df 93       	push	r29
	uint8_t bit = digitalPinToBitMask(pin);
    3bc2:	90 e0       	ldi	r25, 0x00	; 0
    3bc4:	fc 01       	movw	r30, r24
    3bc6:	e4 56       	subi	r30, 0x64	; 100
    3bc8:	ff 4f       	sbci	r31, 0xFF	; 255
    3bca:	24 91       	lpm	r18, Z
	uint8_t port = digitalPinToPort(pin);
    3bcc:	fc 01       	movw	r30, r24
    3bce:	e0 55       	subi	r30, 0x50	; 80
    3bd0:	ff 4f       	sbci	r31, 0xFF	; 255
    3bd2:	84 91       	lpm	r24, Z
	volatile uint8_t *reg, *out;

	if (port == NOT_A_PIN) return;
    3bd4:	88 23       	and	r24, r24
    3bd6:	61 f1       	breq	.+88     	; 0x3c30 <pinMode+0x72>

	// JWS: can I let the optimizer do this?
	reg = portModeRegister(port);
    3bd8:	90 e0       	ldi	r25, 0x00	; 0
    3bda:	88 0f       	add	r24, r24
    3bdc:	99 1f       	adc	r25, r25
    3bde:	fc 01       	movw	r30, r24
    3be0:	e8 52       	subi	r30, 0x28	; 40
    3be2:	ff 4f       	sbci	r31, 0xFF	; 255
    3be4:	c5 91       	lpm	r28, Z+
    3be6:	d4 91       	lpm	r29, Z
	out = portOutputRegister(port);
    3be8:	fc 01       	movw	r30, r24
    3bea:	e2 53       	subi	r30, 0x32	; 50
    3bec:	ff 4f       	sbci	r31, 0xFF	; 255
    3bee:	a5 91       	lpm	r26, Z+
    3bf0:	b4 91       	lpm	r27, Z

	if (mode == INPUT) { 
    3bf2:	61 11       	cpse	r22, r1
    3bf4:	09 c0       	rjmp	.+18     	; 0x3c08 <pinMode+0x4a>
		uint8_t oldSREG = SREG;
    3bf6:	9f b7       	in	r25, 0x3f	; 63
                cli();
    3bf8:	f8 94       	cli
		*reg &= ~bit;
    3bfa:	88 81       	ld	r24, Y
    3bfc:	20 95       	com	r18
    3bfe:	82 23       	and	r24, r18
    3c00:	88 83       	st	Y, r24
		*out &= ~bit;
    3c02:	ec 91       	ld	r30, X
    3c04:	2e 23       	and	r18, r30
    3c06:	0b c0       	rjmp	.+22     	; 0x3c1e <pinMode+0x60>
		SREG = oldSREG;
	} else if (mode == INPUT_PULLUP) {
    3c08:	62 30       	cpi	r22, 0x02	; 2
    3c0a:	61 f4       	brne	.+24     	; 0x3c24 <pinMode+0x66>
		uint8_t oldSREG = SREG;
    3c0c:	9f b7       	in	r25, 0x3f	; 63
                cli();
    3c0e:	f8 94       	cli
		*reg &= ~bit;
    3c10:	88 81       	ld	r24, Y
    3c12:	32 2f       	mov	r19, r18
    3c14:	30 95       	com	r19
    3c16:	83 23       	and	r24, r19
    3c18:	88 83       	st	Y, r24
		*out |= bit;
    3c1a:	ec 91       	ld	r30, X
    3c1c:	2e 2b       	or	r18, r30
    3c1e:	2c 93       	st	X, r18
		SREG = oldSREG;
    3c20:	9f bf       	out	0x3f, r25	; 63
    3c22:	06 c0       	rjmp	.+12     	; 0x3c30 <pinMode+0x72>
	} else {
		uint8_t oldSREG = SREG;
    3c24:	8f b7       	in	r24, 0x3f	; 63
                cli();
    3c26:	f8 94       	cli
		*reg |= bit;
    3c28:	e8 81       	ld	r30, Y
    3c2a:	2e 2b       	or	r18, r30
    3c2c:	28 83       	st	Y, r18
		SREG = oldSREG;
    3c2e:	8f bf       	out	0x3f, r24	; 63
	}
}
    3c30:	df 91       	pop	r29
    3c32:	cf 91       	pop	r28
    3c34:	08 95       	ret

00003c36 <digitalWrite>:
		#endif
	}
}

void digitalWrite(uint8_t pin, uint8_t val)
{
    3c36:	1f 93       	push	r17
    3c38:	cf 93       	push	r28
    3c3a:	df 93       	push	r29
	uint8_t timer = digitalPinToTimer(pin);
    3c3c:	28 2f       	mov	r18, r24
    3c3e:	30 e0       	ldi	r19, 0x00	; 0
    3c40:	f9 01       	movw	r30, r18
    3c42:	e8 57       	subi	r30, 0x78	; 120
    3c44:	ff 4f       	sbci	r31, 0xFF	; 255
    3c46:	84 91       	lpm	r24, Z
	uint8_t bit = digitalPinToBitMask(pin);
    3c48:	f9 01       	movw	r30, r18
    3c4a:	e4 56       	subi	r30, 0x64	; 100
    3c4c:	ff 4f       	sbci	r31, 0xFF	; 255
    3c4e:	d4 91       	lpm	r29, Z
	uint8_t port = digitalPinToPort(pin);
    3c50:	f9 01       	movw	r30, r18
    3c52:	e0 55       	subi	r30, 0x50	; 80
    3c54:	ff 4f       	sbci	r31, 0xFF	; 255
    3c56:	c4 91       	lpm	r28, Z
	volatile uint8_t *out;

	if (port == NOT_A_PIN) return;
    3c58:	cc 23       	and	r28, r28
    3c5a:	c1 f0       	breq	.+48     	; 0x3c8c <digitalWrite+0x56>
    3c5c:	16 2f       	mov	r17, r22

	// If the pin that support PWM output, we need to turn it off
	// before doing a digital write.
	if (timer != NOT_ON_TIMER) turnOffPWM(timer);
    3c5e:	81 11       	cpse	r24, r1
    3c60:	0e 94 b6 1d 	call	0x3b6c	; 0x3b6c <turnOffPWM>

	out = portOutputRegister(port);
    3c64:	ec 2f       	mov	r30, r28
    3c66:	f0 e0       	ldi	r31, 0x00	; 0
    3c68:	ee 0f       	add	r30, r30
    3c6a:	ff 1f       	adc	r31, r31
    3c6c:	e2 53       	subi	r30, 0x32	; 50
    3c6e:	ff 4f       	sbci	r31, 0xFF	; 255
    3c70:	a5 91       	lpm	r26, Z+
    3c72:	b4 91       	lpm	r27, Z

	uint8_t oldSREG = SREG;
    3c74:	9f b7       	in	r25, 0x3f	; 63
	cli();
    3c76:	f8 94       	cli

	if (val == LOW) {
    3c78:	11 11       	cpse	r17, r1
    3c7a:	04 c0       	rjmp	.+8      	; 0x3c84 <digitalWrite+0x4e>
		*out &= ~bit;
    3c7c:	8c 91       	ld	r24, X
    3c7e:	d0 95       	com	r29
    3c80:	d8 23       	and	r29, r24
    3c82:	02 c0       	rjmp	.+4      	; 0x3c88 <digitalWrite+0x52>
	} else {
		*out |= bit;
    3c84:	ec 91       	ld	r30, X
    3c86:	de 2b       	or	r29, r30
    3c88:	dc 93       	st	X, r29
	}

	SREG = oldSREG;
    3c8a:	9f bf       	out	0x3f, r25	; 63
}
    3c8c:	df 91       	pop	r29
    3c8e:	cf 91       	pop	r28
    3c90:	1f 91       	pop	r17
    3c92:	08 95       	ret

00003c94 <digitalRead>:

int digitalRead(uint8_t pin)
{
    3c94:	cf 93       	push	r28
    3c96:	df 93       	push	r29
	uint8_t timer = digitalPinToTimer(pin);
    3c98:	28 2f       	mov	r18, r24
    3c9a:	30 e0       	ldi	r19, 0x00	; 0
    3c9c:	f9 01       	movw	r30, r18
    3c9e:	e8 57       	subi	r30, 0x78	; 120
    3ca0:	ff 4f       	sbci	r31, 0xFF	; 255
    3ca2:	84 91       	lpm	r24, Z
	uint8_t bit = digitalPinToBitMask(pin);
    3ca4:	f9 01       	movw	r30, r18
    3ca6:	e4 56       	subi	r30, 0x64	; 100
    3ca8:	ff 4f       	sbci	r31, 0xFF	; 255
    3caa:	d4 91       	lpm	r29, Z
	uint8_t port = digitalPinToPort(pin);
    3cac:	f9 01       	movw	r30, r18
    3cae:	e0 55       	subi	r30, 0x50	; 80
    3cb0:	ff 4f       	sbci	r31, 0xFF	; 255
    3cb2:	c4 91       	lpm	r28, Z

	if (port == NOT_A_PIN) return LOW;
    3cb4:	cc 23       	and	r28, r28
    3cb6:	91 f0       	breq	.+36     	; 0x3cdc <digitalRead+0x48>

	// If the pin that support PWM output, we need to turn it off
	// before getting a digital reading.
	if (timer != NOT_ON_TIMER) turnOffPWM(timer);
    3cb8:	81 11       	cpse	r24, r1
    3cba:	0e 94 b6 1d 	call	0x3b6c	; 0x3b6c <turnOffPWM>

	if (*portInputRegister(port) & bit) return HIGH;
    3cbe:	ec 2f       	mov	r30, r28
    3cc0:	f0 e0       	ldi	r31, 0x00	; 0
    3cc2:	ee 0f       	add	r30, r30
    3cc4:	ff 1f       	adc	r31, r31
    3cc6:	ec 53       	subi	r30, 0x3C	; 60
    3cc8:	ff 4f       	sbci	r31, 0xFF	; 255
    3cca:	a5 91       	lpm	r26, Z+
    3ccc:	b4 91       	lpm	r27, Z
    3cce:	ec 91       	ld	r30, X
{
	uint8_t timer = digitalPinToTimer(pin);
	uint8_t bit = digitalPinToBitMask(pin);
	uint8_t port = digitalPinToPort(pin);

	if (port == NOT_A_PIN) return LOW;
    3cd0:	ed 23       	and	r30, r29
    3cd2:	81 e0       	ldi	r24, 0x01	; 1
    3cd4:	90 e0       	ldi	r25, 0x00	; 0
    3cd6:	21 f4       	brne	.+8      	; 0x3ce0 <digitalRead+0x4c>
    3cd8:	80 e0       	ldi	r24, 0x00	; 0
    3cda:	02 c0       	rjmp	.+4      	; 0x3ce0 <digitalRead+0x4c>
    3cdc:	80 e0       	ldi	r24, 0x00	; 0
    3cde:	90 e0       	ldi	r25, 0x00	; 0
	// before getting a digital reading.
	if (timer != NOT_ON_TIMER) turnOffPWM(timer);

	if (*portInputRegister(port) & bit) return HIGH;
	return LOW;
}
    3ce0:	df 91       	pop	r29
    3ce2:	cf 91       	pop	r28
    3ce4:	08 95       	ret

00003ce6 <_ZNK6String14StringIfHelperEv>:
	unsigned int newlen = len + length;
	if (!reserve(newlen)) return 0;
	strcpy_P(buffer + len, (const char *) str);
	len = newlen;
	return 1;
}
    3ce6:	08 95       	ret

00003ce8 <_ZN6StringD1Ev>:
    3ce8:	fc 01       	movw	r30, r24
    3cea:	80 81       	ld	r24, Z
    3cec:	91 81       	ldd	r25, Z+1	; 0x01
    3cee:	0c 94 da 20 	jmp	0x41b4	; 0x41b4 <free>

00003cf2 <_ZN6String10invalidateEv>:
    3cf2:	cf 93       	push	r28
    3cf4:	df 93       	push	r29
    3cf6:	ec 01       	movw	r28, r24
    3cf8:	88 81       	ld	r24, Y
    3cfa:	99 81       	ldd	r25, Y+1	; 0x01
    3cfc:	00 97       	sbiw	r24, 0x00	; 0
    3cfe:	11 f0       	breq	.+4      	; 0x3d04 <_ZN6String10invalidateEv+0x12>
    3d00:	0e 94 da 20 	call	0x41b4	; 0x41b4 <free>
    3d04:	19 82       	std	Y+1, r1	; 0x01
    3d06:	18 82       	st	Y, r1
    3d08:	1d 82       	std	Y+5, r1	; 0x05
    3d0a:	1c 82       	std	Y+4, r1	; 0x04
    3d0c:	1b 82       	std	Y+3, r1	; 0x03
    3d0e:	1a 82       	std	Y+2, r1	; 0x02
    3d10:	df 91       	pop	r29
    3d12:	cf 91       	pop	r28
    3d14:	08 95       	ret

00003d16 <_ZN6String12changeBufferEj>:
    3d16:	0f 93       	push	r16
    3d18:	1f 93       	push	r17
    3d1a:	cf 93       	push	r28
    3d1c:	df 93       	push	r29
    3d1e:	ec 01       	movw	r28, r24
    3d20:	8b 01       	movw	r16, r22
    3d22:	6f 5f       	subi	r22, 0xFF	; 255
    3d24:	7f 4f       	sbci	r23, 0xFF	; 255
    3d26:	88 81       	ld	r24, Y
    3d28:	99 81       	ldd	r25, Y+1	; 0x01
    3d2a:	0e 94 63 21 	call	0x42c6	; 0x42c6 <realloc>
    3d2e:	00 97       	sbiw	r24, 0x00	; 0
    3d30:	31 f0       	breq	.+12     	; 0x3d3e <_ZN6String12changeBufferEj+0x28>
    3d32:	99 83       	std	Y+1, r25	; 0x01
    3d34:	88 83       	st	Y, r24
    3d36:	1b 83       	std	Y+3, r17	; 0x03
    3d38:	0a 83       	std	Y+2, r16	; 0x02
    3d3a:	81 e0       	ldi	r24, 0x01	; 1
    3d3c:	01 c0       	rjmp	.+2      	; 0x3d40 <_ZN6String12changeBufferEj+0x2a>
    3d3e:	80 e0       	ldi	r24, 0x00	; 0
    3d40:	df 91       	pop	r29
    3d42:	cf 91       	pop	r28
    3d44:	1f 91       	pop	r17
    3d46:	0f 91       	pop	r16
    3d48:	08 95       	ret

00003d4a <_ZN6String7reserveEj>:
    3d4a:	cf 93       	push	r28
    3d4c:	df 93       	push	r29
    3d4e:	ec 01       	movw	r28, r24
    3d50:	88 81       	ld	r24, Y
    3d52:	99 81       	ldd	r25, Y+1	; 0x01
    3d54:	89 2b       	or	r24, r25
    3d56:	29 f0       	breq	.+10     	; 0x3d62 <_ZN6String7reserveEj+0x18>
    3d58:	8a 81       	ldd	r24, Y+2	; 0x02
    3d5a:	9b 81       	ldd	r25, Y+3	; 0x03
    3d5c:	86 17       	cp	r24, r22
    3d5e:	97 07       	cpc	r25, r23
    3d60:	60 f4       	brcc	.+24     	; 0x3d7a <_ZN6String7reserveEj+0x30>
    3d62:	ce 01       	movw	r24, r28
    3d64:	0e 94 8b 1e 	call	0x3d16	; 0x3d16 <_ZN6String12changeBufferEj>
    3d68:	88 23       	and	r24, r24
    3d6a:	41 f0       	breq	.+16     	; 0x3d7c <_ZN6String7reserveEj+0x32>
    3d6c:	8c 81       	ldd	r24, Y+4	; 0x04
    3d6e:	9d 81       	ldd	r25, Y+5	; 0x05
    3d70:	89 2b       	or	r24, r25
    3d72:	19 f4       	brne	.+6      	; 0x3d7a <_ZN6String7reserveEj+0x30>
    3d74:	e8 81       	ld	r30, Y
    3d76:	f9 81       	ldd	r31, Y+1	; 0x01
    3d78:	10 82       	st	Z, r1
    3d7a:	81 e0       	ldi	r24, 0x01	; 1
    3d7c:	df 91       	pop	r29
    3d7e:	cf 91       	pop	r28
    3d80:	08 95       	ret

00003d82 <_ZN6String4copyEPKcj>:
    3d82:	ef 92       	push	r14
    3d84:	ff 92       	push	r15
    3d86:	0f 93       	push	r16
    3d88:	1f 93       	push	r17
    3d8a:	cf 93       	push	r28
    3d8c:	df 93       	push	r29
    3d8e:	ec 01       	movw	r28, r24
    3d90:	7b 01       	movw	r14, r22
    3d92:	8a 01       	movw	r16, r20
    3d94:	ba 01       	movw	r22, r20
    3d96:	0e 94 a5 1e 	call	0x3d4a	; 0x3d4a <_ZN6String7reserveEj>
    3d9a:	81 11       	cpse	r24, r1
    3d9c:	04 c0       	rjmp	.+8      	; 0x3da6 <_ZN6String4copyEPKcj+0x24>
    3d9e:	ce 01       	movw	r24, r28
    3da0:	0e 94 79 1e 	call	0x3cf2	; 0x3cf2 <_ZN6String10invalidateEv>
    3da4:	07 c0       	rjmp	.+14     	; 0x3db4 <_ZN6String4copyEPKcj+0x32>
    3da6:	1d 83       	std	Y+5, r17	; 0x05
    3da8:	0c 83       	std	Y+4, r16	; 0x04
    3daa:	b7 01       	movw	r22, r14
    3dac:	88 81       	ld	r24, Y
    3dae:	99 81       	ldd	r25, Y+1	; 0x01
    3db0:	0e 94 32 22 	call	0x4464	; 0x4464 <strcpy>
    3db4:	ce 01       	movw	r24, r28
    3db6:	df 91       	pop	r29
    3db8:	cf 91       	pop	r28
    3dba:	1f 91       	pop	r17
    3dbc:	0f 91       	pop	r16
    3dbe:	ff 90       	pop	r15
    3dc0:	ef 90       	pop	r14
    3dc2:	08 95       	ret

00003dc4 <_ZN6StringC1EPKc>:
    3dc4:	fc 01       	movw	r30, r24
    3dc6:	11 82       	std	Z+1, r1	; 0x01
    3dc8:	10 82       	st	Z, r1
    3dca:	13 82       	std	Z+3, r1	; 0x03
    3dcc:	12 82       	std	Z+2, r1	; 0x02
    3dce:	15 82       	std	Z+5, r1	; 0x05
    3dd0:	14 82       	std	Z+4, r1	; 0x04
    3dd2:	61 15       	cp	r22, r1
    3dd4:	71 05       	cpc	r23, r1
    3dd6:	51 f0       	breq	.+20     	; 0x3dec <_ZN6StringC1EPKc+0x28>
    3dd8:	fb 01       	movw	r30, r22
    3dda:	01 90       	ld	r0, Z+
    3ddc:	00 20       	and	r0, r0
    3dde:	e9 f7       	brne	.-6      	; 0x3dda <_ZN6StringC1EPKc+0x16>
    3de0:	31 97       	sbiw	r30, 0x01	; 1
    3de2:	af 01       	movw	r20, r30
    3de4:	46 1b       	sub	r20, r22
    3de6:	57 0b       	sbc	r21, r23
    3de8:	0c 94 c1 1e 	jmp	0x3d82	; 0x3d82 <_ZN6String4copyEPKcj>
    3dec:	08 95       	ret

00003dee <_ZN6String4moveERS_>:
    3dee:	0f 93       	push	r16
    3df0:	1f 93       	push	r17
    3df2:	cf 93       	push	r28
    3df4:	df 93       	push	r29
    3df6:	8c 01       	movw	r16, r24
    3df8:	eb 01       	movw	r28, r22
    3dfa:	fc 01       	movw	r30, r24
    3dfc:	80 81       	ld	r24, Z
    3dfe:	91 81       	ldd	r25, Z+1	; 0x01
    3e00:	00 97       	sbiw	r24, 0x00	; 0
    3e02:	d1 f0       	breq	.+52     	; 0x3e38 <_ZN6String4moveERS_+0x4a>
    3e04:	68 81       	ld	r22, Y
    3e06:	79 81       	ldd	r23, Y+1	; 0x01
    3e08:	61 15       	cp	r22, r1
    3e0a:	71 05       	cpc	r23, r1
    3e0c:	99 f0       	breq	.+38     	; 0x3e34 <_ZN6String4moveERS_+0x46>
    3e0e:	23 e7       	ldi	r18, 0x73	; 115
    3e10:	3e e1       	ldi	r19, 0x1E	; 30
    3e12:	23 2b       	or	r18, r19
    3e14:	79 f0       	breq	.+30     	; 0x3e34 <_ZN6String4moveERS_+0x46>
    3e16:	42 81       	ldd	r20, Z+2	; 0x02
    3e18:	53 81       	ldd	r21, Z+3	; 0x03
    3e1a:	2c 81       	ldd	r18, Y+4	; 0x04
    3e1c:	3d 81       	ldd	r19, Y+5	; 0x05
    3e1e:	42 17       	cp	r20, r18
    3e20:	53 07       	cpc	r21, r19
    3e22:	40 f0       	brcs	.+16     	; 0x3e34 <_ZN6String4moveERS_+0x46>
    3e24:	0e 94 32 22 	call	0x4464	; 0x4464 <strcpy>
    3e28:	8c 81       	ldd	r24, Y+4	; 0x04
    3e2a:	9d 81       	ldd	r25, Y+5	; 0x05
    3e2c:	f8 01       	movw	r30, r16
    3e2e:	95 83       	std	Z+5, r25	; 0x05
    3e30:	84 83       	std	Z+4, r24	; 0x04
    3e32:	13 c0       	rjmp	.+38     	; 0x3e5a <_ZN6String4moveERS_+0x6c>
    3e34:	0e 94 da 20 	call	0x41b4	; 0x41b4 <free>
    3e38:	88 81       	ld	r24, Y
    3e3a:	99 81       	ldd	r25, Y+1	; 0x01
    3e3c:	f8 01       	movw	r30, r16
    3e3e:	91 83       	std	Z+1, r25	; 0x01
    3e40:	80 83       	st	Z, r24
    3e42:	8a 81       	ldd	r24, Y+2	; 0x02
    3e44:	9b 81       	ldd	r25, Y+3	; 0x03
    3e46:	93 83       	std	Z+3, r25	; 0x03
    3e48:	82 83       	std	Z+2, r24	; 0x02
    3e4a:	8c 81       	ldd	r24, Y+4	; 0x04
    3e4c:	9d 81       	ldd	r25, Y+5	; 0x05
    3e4e:	95 83       	std	Z+5, r25	; 0x05
    3e50:	84 83       	std	Z+4, r24	; 0x04
    3e52:	19 82       	std	Y+1, r1	; 0x01
    3e54:	18 82       	st	Y, r1
    3e56:	1b 82       	std	Y+3, r1	; 0x03
    3e58:	1a 82       	std	Y+2, r1	; 0x02
    3e5a:	1d 82       	std	Y+5, r1	; 0x05
    3e5c:	1c 82       	std	Y+4, r1	; 0x04
    3e5e:	df 91       	pop	r29
    3e60:	cf 91       	pop	r28
    3e62:	1f 91       	pop	r17
    3e64:	0f 91       	pop	r16
    3e66:	08 95       	ret

00003e68 <_ZN6StringaSERKS_>:
    3e68:	cf 93       	push	r28
    3e6a:	df 93       	push	r29
    3e6c:	ec 01       	movw	r28, r24
    3e6e:	fb 01       	movw	r30, r22
    3e70:	86 17       	cp	r24, r22
    3e72:	97 07       	cpc	r25, r23
    3e74:	61 f0       	breq	.+24     	; 0x3e8e <_ZN6StringaSERKS_+0x26>
    3e76:	60 81       	ld	r22, Z
    3e78:	71 81       	ldd	r23, Z+1	; 0x01
    3e7a:	61 15       	cp	r22, r1
    3e7c:	71 05       	cpc	r23, r1
    3e7e:	29 f0       	breq	.+10     	; 0x3e8a <_ZN6StringaSERKS_+0x22>
    3e80:	44 81       	ldd	r20, Z+4	; 0x04
    3e82:	55 81       	ldd	r21, Z+5	; 0x05
    3e84:	0e 94 c1 1e 	call	0x3d82	; 0x3d82 <_ZN6String4copyEPKcj>
    3e88:	02 c0       	rjmp	.+4      	; 0x3e8e <_ZN6StringaSERKS_+0x26>
    3e8a:	0e 94 79 1e 	call	0x3cf2	; 0x3cf2 <_ZN6String10invalidateEv>
    3e8e:	ce 01       	movw	r24, r28
    3e90:	df 91       	pop	r29
    3e92:	cf 91       	pop	r28
    3e94:	08 95       	ret

00003e96 <_ZN6StringaSEOS_>:
    3e96:	cf 93       	push	r28
    3e98:	df 93       	push	r29
    3e9a:	ec 01       	movw	r28, r24
    3e9c:	86 17       	cp	r24, r22
    3e9e:	97 07       	cpc	r25, r23
    3ea0:	11 f0       	breq	.+4      	; 0x3ea6 <_ZN6StringaSEOS_+0x10>
    3ea2:	0e 94 f7 1e 	call	0x3dee	; 0x3dee <_ZN6String4moveERS_>
    3ea6:	ce 01       	movw	r24, r28
    3ea8:	df 91       	pop	r29
    3eaa:	cf 91       	pop	r28
    3eac:	08 95       	ret

00003eae <_ZN6StringaSEPKc>:
    3eae:	cf 93       	push	r28
    3eb0:	df 93       	push	r29
    3eb2:	ec 01       	movw	r28, r24
    3eb4:	61 15       	cp	r22, r1
    3eb6:	71 05       	cpc	r23, r1
    3eb8:	59 f0       	breq	.+22     	; 0x3ed0 <_ZN6StringaSEPKc+0x22>
    3eba:	fb 01       	movw	r30, r22
    3ebc:	01 90       	ld	r0, Z+
    3ebe:	00 20       	and	r0, r0
    3ec0:	e9 f7       	brne	.-6      	; 0x3ebc <_ZN6StringaSEPKc+0xe>
    3ec2:	31 97       	sbiw	r30, 0x01	; 1
    3ec4:	af 01       	movw	r20, r30
    3ec6:	46 1b       	sub	r20, r22
    3ec8:	57 0b       	sbc	r21, r23
    3eca:	0e 94 c1 1e 	call	0x3d82	; 0x3d82 <_ZN6String4copyEPKcj>
    3ece:	02 c0       	rjmp	.+4      	; 0x3ed4 <_ZN6StringaSEPKc+0x26>
    3ed0:	0e 94 79 1e 	call	0x3cf2	; 0x3cf2 <_ZN6String10invalidateEv>
    3ed4:	ce 01       	movw	r24, r28
    3ed6:	df 91       	pop	r29
    3ed8:	cf 91       	pop	r28
    3eda:	08 95       	ret

00003edc <_ZN6StringC1Eih>:
    3edc:	0f 93       	push	r16
    3ede:	1f 93       	push	r17
    3ee0:	cf 93       	push	r28
    3ee2:	df 93       	push	r29
    3ee4:	cd b7       	in	r28, 0x3d	; 61
    3ee6:	de b7       	in	r29, 0x3e	; 62
    3ee8:	62 97       	sbiw	r28, 0x12	; 18
    3eea:	0f b6       	in	r0, 0x3f	; 63
    3eec:	f8 94       	cli
    3eee:	de bf       	out	0x3e, r29	; 62
    3ef0:	0f be       	out	0x3f, r0	; 63
    3ef2:	cd bf       	out	0x3d, r28	; 61
    3ef4:	8c 01       	movw	r16, r24
    3ef6:	cb 01       	movw	r24, r22
    3ef8:	f8 01       	movw	r30, r16
    3efa:	11 82       	std	Z+1, r1	; 0x01
    3efc:	10 82       	st	Z, r1
    3efe:	13 82       	std	Z+3, r1	; 0x03
    3f00:	12 82       	std	Z+2, r1	; 0x02
    3f02:	15 82       	std	Z+5, r1	; 0x05
    3f04:	14 82       	std	Z+4, r1	; 0x04
    3f06:	50 e0       	ldi	r21, 0x00	; 0
    3f08:	be 01       	movw	r22, r28
    3f0a:	6f 5f       	subi	r22, 0xFF	; 255
    3f0c:	7f 4f       	sbci	r23, 0xFF	; 255
    3f0e:	0e 94 39 22 	call	0x4472	; 0x4472 <itoa>
    3f12:	be 01       	movw	r22, r28
    3f14:	6f 5f       	subi	r22, 0xFF	; 255
    3f16:	7f 4f       	sbci	r23, 0xFF	; 255
    3f18:	c8 01       	movw	r24, r16
    3f1a:	0e 94 57 1f 	call	0x3eae	; 0x3eae <_ZN6StringaSEPKc>
    3f1e:	62 96       	adiw	r28, 0x12	; 18
    3f20:	0f b6       	in	r0, 0x3f	; 63
    3f22:	f8 94       	cli
    3f24:	de bf       	out	0x3e, r29	; 62
    3f26:	0f be       	out	0x3f, r0	; 63
    3f28:	cd bf       	out	0x3d, r28	; 61
    3f2a:	df 91       	pop	r29
    3f2c:	cf 91       	pop	r28
    3f2e:	1f 91       	pop	r17
    3f30:	0f 91       	pop	r16
    3f32:	08 95       	ret

00003f34 <_ZN6String6concatEPKcj>:
    3f34:	ef 92       	push	r14
    3f36:	ff 92       	push	r15
    3f38:	0f 93       	push	r16
    3f3a:	1f 93       	push	r17
    3f3c:	cf 93       	push	r28
    3f3e:	df 93       	push	r29
    3f40:	61 15       	cp	r22, r1
    3f42:	71 05       	cpc	r23, r1
    3f44:	11 f4       	brne	.+4      	; 0x3f4a <_ZN6String6concatEPKcj+0x16>
    3f46:	80 e0       	ldi	r24, 0x00	; 0
    3f48:	1c c0       	rjmp	.+56     	; 0x3f82 <_ZN6String6concatEPKcj+0x4e>
    3f4a:	41 15       	cp	r20, r1
    3f4c:	51 05       	cpc	r21, r1
    3f4e:	c1 f0       	breq	.+48     	; 0x3f80 <_ZN6String6concatEPKcj+0x4c>
    3f50:	7b 01       	movw	r14, r22
    3f52:	ec 01       	movw	r28, r24
    3f54:	8c 81       	ldd	r24, Y+4	; 0x04
    3f56:	9d 81       	ldd	r25, Y+5	; 0x05
    3f58:	8a 01       	movw	r16, r20
    3f5a:	08 0f       	add	r16, r24
    3f5c:	19 1f       	adc	r17, r25
    3f5e:	b8 01       	movw	r22, r16
    3f60:	ce 01       	movw	r24, r28
    3f62:	0e 94 a5 1e 	call	0x3d4a	; 0x3d4a <_ZN6String7reserveEj>
    3f66:	88 23       	and	r24, r24
    3f68:	71 f3       	breq	.-36     	; 0x3f46 <_ZN6String6concatEPKcj+0x12>
    3f6a:	28 81       	ld	r18, Y
    3f6c:	39 81       	ldd	r19, Y+1	; 0x01
    3f6e:	8c 81       	ldd	r24, Y+4	; 0x04
    3f70:	9d 81       	ldd	r25, Y+5	; 0x05
    3f72:	b7 01       	movw	r22, r14
    3f74:	82 0f       	add	r24, r18
    3f76:	93 1f       	adc	r25, r19
    3f78:	0e 94 32 22 	call	0x4464	; 0x4464 <strcpy>
    3f7c:	1d 83       	std	Y+5, r17	; 0x05
    3f7e:	0c 83       	std	Y+4, r16	; 0x04
    3f80:	81 e0       	ldi	r24, 0x01	; 1
    3f82:	df 91       	pop	r29
    3f84:	cf 91       	pop	r28
    3f86:	1f 91       	pop	r17
    3f88:	0f 91       	pop	r16
    3f8a:	ff 90       	pop	r15
    3f8c:	ef 90       	pop	r14
    3f8e:	08 95       	ret

00003f90 <_ZN6String6concatERKS_>:
    3f90:	fb 01       	movw	r30, r22
    3f92:	44 81       	ldd	r20, Z+4	; 0x04
    3f94:	55 81       	ldd	r21, Z+5	; 0x05
    3f96:	60 81       	ld	r22, Z
    3f98:	71 81       	ldd	r23, Z+1	; 0x01
    3f9a:	0c 94 9a 1f 	jmp	0x3f34	; 0x3f34 <_ZN6String6concatEPKcj>

00003f9e <_ZN6String6concatEPKc>:
    3f9e:	61 15       	cp	r22, r1
    3fa0:	71 05       	cpc	r23, r1
    3fa2:	51 f0       	breq	.+20     	; 0x3fb8 <_ZN6String6concatEPKc+0x1a>
    3fa4:	fb 01       	movw	r30, r22
    3fa6:	01 90       	ld	r0, Z+
    3fa8:	00 20       	and	r0, r0
    3faa:	e9 f7       	brne	.-6      	; 0x3fa6 <_ZN6String6concatEPKc+0x8>
    3fac:	31 97       	sbiw	r30, 0x01	; 1
    3fae:	af 01       	movw	r20, r30
    3fb0:	46 1b       	sub	r20, r22
    3fb2:	57 0b       	sbc	r21, r23
    3fb4:	0c 94 9a 1f 	jmp	0x3f34	; 0x3f34 <_ZN6String6concatEPKcj>
    3fb8:	80 e0       	ldi	r24, 0x00	; 0
    3fba:	08 95       	ret

00003fbc <_ZplRK15StringSumHelperRK6String>:
/*********************************************/
/*  Concatenate                              */
/*********************************************/

StringSumHelper & operator + (const StringSumHelper &lhs, const String &rhs)
{
    3fbc:	cf 93       	push	r28
    3fbe:	df 93       	push	r29
    3fc0:	ec 01       	movw	r28, r24
	StringSumHelper &a = const_cast<StringSumHelper&>(lhs);
	if (!a.concat(rhs.buffer, rhs.len)) a.invalidate();
    3fc2:	fb 01       	movw	r30, r22
    3fc4:	44 81       	ldd	r20, Z+4	; 0x04
    3fc6:	55 81       	ldd	r21, Z+5	; 0x05
    3fc8:	60 81       	ld	r22, Z
    3fca:	71 81       	ldd	r23, Z+1	; 0x01
    3fcc:	0e 94 9a 1f 	call	0x3f34	; 0x3f34 <_ZN6String6concatEPKcj>
    3fd0:	81 11       	cpse	r24, r1
    3fd2:	03 c0       	rjmp	.+6      	; 0x3fda <_ZplRK15StringSumHelperRK6String+0x1e>
    3fd4:	ce 01       	movw	r24, r28
    3fd6:	0e 94 79 1e 	call	0x3cf2	; 0x3cf2 <_ZN6String10invalidateEv>
	return a;
}
    3fda:	ce 01       	movw	r24, r28
    3fdc:	df 91       	pop	r29
    3fde:	cf 91       	pop	r28
    3fe0:	08 95       	ret

00003fe2 <yield>:
 * libraries or sketches that supports cooperative threads.
 *
 * Its defined as a weak symbol and it can be redefined to implement a
 * real cooperative scheduler.
 */
static void __empty() {
    3fe2:	08 95       	ret

00003fe4 <__divmodhi4>:
    3fe4:	97 fb       	bst	r25, 7
    3fe6:	07 2e       	mov	r0, r23
    3fe8:	16 f4       	brtc	.+4      	; 0x3fee <__divmodhi4+0xa>
    3fea:	00 94       	com	r0
    3fec:	07 d0       	rcall	.+14     	; 0x3ffc <__divmodhi4_neg1>
    3fee:	77 fd       	sbrc	r23, 7
    3ff0:	09 d0       	rcall	.+18     	; 0x4004 <__divmodhi4_neg2>
    3ff2:	0e 94 28 20 	call	0x4050	; 0x4050 <__udivmodhi4>
    3ff6:	07 fc       	sbrc	r0, 7
    3ff8:	05 d0       	rcall	.+10     	; 0x4004 <__divmodhi4_neg2>
    3ffa:	3e f4       	brtc	.+14     	; 0x400a <__divmodhi4_exit>

00003ffc <__divmodhi4_neg1>:
    3ffc:	90 95       	com	r25
    3ffe:	81 95       	neg	r24
    4000:	9f 4f       	sbci	r25, 0xFF	; 255
    4002:	08 95       	ret

00004004 <__divmodhi4_neg2>:
    4004:	70 95       	com	r23
    4006:	61 95       	neg	r22
    4008:	7f 4f       	sbci	r23, 0xFF	; 255

0000400a <__divmodhi4_exit>:
    400a:	08 95       	ret

0000400c <__udivmodsi4>:
    400c:	a1 e2       	ldi	r26, 0x21	; 33
    400e:	1a 2e       	mov	r1, r26
    4010:	aa 1b       	sub	r26, r26
    4012:	bb 1b       	sub	r27, r27
    4014:	fd 01       	movw	r30, r26
    4016:	0d c0       	rjmp	.+26     	; 0x4032 <__udivmodsi4_ep>

00004018 <__udivmodsi4_loop>:
    4018:	aa 1f       	adc	r26, r26
    401a:	bb 1f       	adc	r27, r27
    401c:	ee 1f       	adc	r30, r30
    401e:	ff 1f       	adc	r31, r31
    4020:	a2 17       	cp	r26, r18
    4022:	b3 07       	cpc	r27, r19
    4024:	e4 07       	cpc	r30, r20
    4026:	f5 07       	cpc	r31, r21
    4028:	20 f0       	brcs	.+8      	; 0x4032 <__udivmodsi4_ep>
    402a:	a2 1b       	sub	r26, r18
    402c:	b3 0b       	sbc	r27, r19
    402e:	e4 0b       	sbc	r30, r20
    4030:	f5 0b       	sbc	r31, r21

00004032 <__udivmodsi4_ep>:
    4032:	66 1f       	adc	r22, r22
    4034:	77 1f       	adc	r23, r23
    4036:	88 1f       	adc	r24, r24
    4038:	99 1f       	adc	r25, r25
    403a:	1a 94       	dec	r1
    403c:	69 f7       	brne	.-38     	; 0x4018 <__udivmodsi4_loop>
    403e:	60 95       	com	r22
    4040:	70 95       	com	r23
    4042:	80 95       	com	r24
    4044:	90 95       	com	r25
    4046:	9b 01       	movw	r18, r22
    4048:	ac 01       	movw	r20, r24
    404a:	bd 01       	movw	r22, r26
    404c:	cf 01       	movw	r24, r30
    404e:	08 95       	ret

00004050 <__udivmodhi4>:
    4050:	aa 1b       	sub	r26, r26
    4052:	bb 1b       	sub	r27, r27
    4054:	51 e1       	ldi	r21, 0x11	; 17
    4056:	07 c0       	rjmp	.+14     	; 0x4066 <__udivmodhi4_ep>

00004058 <__udivmodhi4_loop>:
    4058:	aa 1f       	adc	r26, r26
    405a:	bb 1f       	adc	r27, r27
    405c:	a6 17       	cp	r26, r22
    405e:	b7 07       	cpc	r27, r23
    4060:	10 f0       	brcs	.+4      	; 0x4066 <__udivmodhi4_ep>
    4062:	a6 1b       	sub	r26, r22
    4064:	b7 0b       	sbc	r27, r23

00004066 <__udivmodhi4_ep>:
    4066:	88 1f       	adc	r24, r24
    4068:	99 1f       	adc	r25, r25
    406a:	5a 95       	dec	r21
    406c:	a9 f7       	brne	.-22     	; 0x4058 <__udivmodhi4_loop>
    406e:	80 95       	com	r24
    4070:	90 95       	com	r25
    4072:	bc 01       	movw	r22, r24
    4074:	cd 01       	movw	r24, r26
    4076:	08 95       	ret

00004078 <__tablejump2__>:
    4078:	ee 0f       	add	r30, r30
    407a:	ff 1f       	adc	r31, r31
    407c:	05 90       	lpm	r0, Z+
    407e:	f4 91       	lpm	r31, Z
    4080:	e0 2d       	mov	r30, r0
    4082:	09 94       	ijmp

00004084 <malloc>:
    4084:	0f 93       	push	r16
    4086:	1f 93       	push	r17
    4088:	cf 93       	push	r28
    408a:	df 93       	push	r29
    408c:	82 30       	cpi	r24, 0x02	; 2
    408e:	91 05       	cpc	r25, r1
    4090:	10 f4       	brcc	.+4      	; 0x4096 <malloc+0x12>
    4092:	82 e0       	ldi	r24, 0x02	; 2
    4094:	90 e0       	ldi	r25, 0x00	; 0
    4096:	e0 91 5c 06 	lds	r30, 0x065C	; 0x80065c <__flp>
    409a:	f0 91 5d 06 	lds	r31, 0x065D	; 0x80065d <__flp+0x1>
    409e:	20 e0       	ldi	r18, 0x00	; 0
    40a0:	30 e0       	ldi	r19, 0x00	; 0
    40a2:	a0 e0       	ldi	r26, 0x00	; 0
    40a4:	b0 e0       	ldi	r27, 0x00	; 0
    40a6:	30 97       	sbiw	r30, 0x00	; 0
    40a8:	19 f1       	breq	.+70     	; 0x40f0 <malloc+0x6c>
    40aa:	40 81       	ld	r20, Z
    40ac:	51 81       	ldd	r21, Z+1	; 0x01
    40ae:	02 81       	ldd	r16, Z+2	; 0x02
    40b0:	13 81       	ldd	r17, Z+3	; 0x03
    40b2:	48 17       	cp	r20, r24
    40b4:	59 07       	cpc	r21, r25
    40b6:	c8 f0       	brcs	.+50     	; 0x40ea <malloc+0x66>
    40b8:	84 17       	cp	r24, r20
    40ba:	95 07       	cpc	r25, r21
    40bc:	69 f4       	brne	.+26     	; 0x40d8 <malloc+0x54>
    40be:	10 97       	sbiw	r26, 0x00	; 0
    40c0:	31 f0       	breq	.+12     	; 0x40ce <malloc+0x4a>
    40c2:	12 96       	adiw	r26, 0x02	; 2
    40c4:	0c 93       	st	X, r16
    40c6:	12 97       	sbiw	r26, 0x02	; 2
    40c8:	13 96       	adiw	r26, 0x03	; 3
    40ca:	1c 93       	st	X, r17
    40cc:	27 c0       	rjmp	.+78     	; 0x411c <malloc+0x98>
    40ce:	00 93 5c 06 	sts	0x065C, r16	; 0x80065c <__flp>
    40d2:	10 93 5d 06 	sts	0x065D, r17	; 0x80065d <__flp+0x1>
    40d6:	22 c0       	rjmp	.+68     	; 0x411c <malloc+0x98>
    40d8:	21 15       	cp	r18, r1
    40da:	31 05       	cpc	r19, r1
    40dc:	19 f0       	breq	.+6      	; 0x40e4 <malloc+0x60>
    40de:	42 17       	cp	r20, r18
    40e0:	53 07       	cpc	r21, r19
    40e2:	18 f4       	brcc	.+6      	; 0x40ea <malloc+0x66>
    40e4:	9a 01       	movw	r18, r20
    40e6:	bd 01       	movw	r22, r26
    40e8:	ef 01       	movw	r28, r30
    40ea:	df 01       	movw	r26, r30
    40ec:	f8 01       	movw	r30, r16
    40ee:	db cf       	rjmp	.-74     	; 0x40a6 <malloc+0x22>
    40f0:	21 15       	cp	r18, r1
    40f2:	31 05       	cpc	r19, r1
    40f4:	f9 f0       	breq	.+62     	; 0x4134 <malloc+0xb0>
    40f6:	28 1b       	sub	r18, r24
    40f8:	39 0b       	sbc	r19, r25
    40fa:	24 30       	cpi	r18, 0x04	; 4
    40fc:	31 05       	cpc	r19, r1
    40fe:	80 f4       	brcc	.+32     	; 0x4120 <malloc+0x9c>
    4100:	8a 81       	ldd	r24, Y+2	; 0x02
    4102:	9b 81       	ldd	r25, Y+3	; 0x03
    4104:	61 15       	cp	r22, r1
    4106:	71 05       	cpc	r23, r1
    4108:	21 f0       	breq	.+8      	; 0x4112 <malloc+0x8e>
    410a:	fb 01       	movw	r30, r22
    410c:	93 83       	std	Z+3, r25	; 0x03
    410e:	82 83       	std	Z+2, r24	; 0x02
    4110:	04 c0       	rjmp	.+8      	; 0x411a <malloc+0x96>
    4112:	90 93 5d 06 	sts	0x065D, r25	; 0x80065d <__flp+0x1>
    4116:	80 93 5c 06 	sts	0x065C, r24	; 0x80065c <__flp>
    411a:	fe 01       	movw	r30, r28
    411c:	32 96       	adiw	r30, 0x02	; 2
    411e:	44 c0       	rjmp	.+136    	; 0x41a8 <malloc+0x124>
    4120:	fe 01       	movw	r30, r28
    4122:	e2 0f       	add	r30, r18
    4124:	f3 1f       	adc	r31, r19
    4126:	81 93       	st	Z+, r24
    4128:	91 93       	st	Z+, r25
    412a:	22 50       	subi	r18, 0x02	; 2
    412c:	31 09       	sbc	r19, r1
    412e:	39 83       	std	Y+1, r19	; 0x01
    4130:	28 83       	st	Y, r18
    4132:	3a c0       	rjmp	.+116    	; 0x41a8 <malloc+0x124>
    4134:	20 91 5a 06 	lds	r18, 0x065A	; 0x80065a <__brkval>
    4138:	30 91 5b 06 	lds	r19, 0x065B	; 0x80065b <__brkval+0x1>
    413c:	23 2b       	or	r18, r19
    413e:	41 f4       	brne	.+16     	; 0x4150 <malloc+0xcc>
    4140:	20 91 02 01 	lds	r18, 0x0102	; 0x800102 <__malloc_heap_start>
    4144:	30 91 03 01 	lds	r19, 0x0103	; 0x800103 <__malloc_heap_start+0x1>
    4148:	30 93 5b 06 	sts	0x065B, r19	; 0x80065b <__brkval+0x1>
    414c:	20 93 5a 06 	sts	0x065A, r18	; 0x80065a <__brkval>
    4150:	20 91 00 01 	lds	r18, 0x0100	; 0x800100 <__data_start>
    4154:	30 91 01 01 	lds	r19, 0x0101	; 0x800101 <__data_start+0x1>
    4158:	21 15       	cp	r18, r1
    415a:	31 05       	cpc	r19, r1
    415c:	41 f4       	brne	.+16     	; 0x416e <malloc+0xea>
    415e:	2d b7       	in	r18, 0x3d	; 61
    4160:	3e b7       	in	r19, 0x3e	; 62
    4162:	40 91 04 01 	lds	r20, 0x0104	; 0x800104 <__malloc_margin>
    4166:	50 91 05 01 	lds	r21, 0x0105	; 0x800105 <__malloc_margin+0x1>
    416a:	24 1b       	sub	r18, r20
    416c:	35 0b       	sbc	r19, r21
    416e:	e0 91 5a 06 	lds	r30, 0x065A	; 0x80065a <__brkval>
    4172:	f0 91 5b 06 	lds	r31, 0x065B	; 0x80065b <__brkval+0x1>
    4176:	e2 17       	cp	r30, r18
    4178:	f3 07       	cpc	r31, r19
    417a:	a0 f4       	brcc	.+40     	; 0x41a4 <malloc+0x120>
    417c:	2e 1b       	sub	r18, r30
    417e:	3f 0b       	sbc	r19, r31
    4180:	28 17       	cp	r18, r24
    4182:	39 07       	cpc	r19, r25
    4184:	78 f0       	brcs	.+30     	; 0x41a4 <malloc+0x120>
    4186:	ac 01       	movw	r20, r24
    4188:	4e 5f       	subi	r20, 0xFE	; 254
    418a:	5f 4f       	sbci	r21, 0xFF	; 255
    418c:	24 17       	cp	r18, r20
    418e:	35 07       	cpc	r19, r21
    4190:	48 f0       	brcs	.+18     	; 0x41a4 <malloc+0x120>
    4192:	4e 0f       	add	r20, r30
    4194:	5f 1f       	adc	r21, r31
    4196:	50 93 5b 06 	sts	0x065B, r21	; 0x80065b <__brkval+0x1>
    419a:	40 93 5a 06 	sts	0x065A, r20	; 0x80065a <__brkval>
    419e:	81 93       	st	Z+, r24
    41a0:	91 93       	st	Z+, r25
    41a2:	02 c0       	rjmp	.+4      	; 0x41a8 <malloc+0x124>
    41a4:	e0 e0       	ldi	r30, 0x00	; 0
    41a6:	f0 e0       	ldi	r31, 0x00	; 0
    41a8:	cf 01       	movw	r24, r30
    41aa:	df 91       	pop	r29
    41ac:	cf 91       	pop	r28
    41ae:	1f 91       	pop	r17
    41b0:	0f 91       	pop	r16
    41b2:	08 95       	ret

000041b4 <free>:
    41b4:	cf 93       	push	r28
    41b6:	df 93       	push	r29
    41b8:	00 97       	sbiw	r24, 0x00	; 0
    41ba:	09 f4       	brne	.+2      	; 0x41be <free+0xa>
    41bc:	81 c0       	rjmp	.+258    	; 0x42c0 <free+0x10c>
    41be:	fc 01       	movw	r30, r24
    41c0:	32 97       	sbiw	r30, 0x02	; 2
    41c2:	13 82       	std	Z+3, r1	; 0x03
    41c4:	12 82       	std	Z+2, r1	; 0x02
    41c6:	a0 91 5c 06 	lds	r26, 0x065C	; 0x80065c <__flp>
    41ca:	b0 91 5d 06 	lds	r27, 0x065D	; 0x80065d <__flp+0x1>
    41ce:	10 97       	sbiw	r26, 0x00	; 0
    41d0:	81 f4       	brne	.+32     	; 0x41f2 <free+0x3e>
    41d2:	20 81       	ld	r18, Z
    41d4:	31 81       	ldd	r19, Z+1	; 0x01
    41d6:	82 0f       	add	r24, r18
    41d8:	93 1f       	adc	r25, r19
    41da:	20 91 5a 06 	lds	r18, 0x065A	; 0x80065a <__brkval>
    41de:	30 91 5b 06 	lds	r19, 0x065B	; 0x80065b <__brkval+0x1>
    41e2:	28 17       	cp	r18, r24
    41e4:	39 07       	cpc	r19, r25
    41e6:	51 f5       	brne	.+84     	; 0x423c <free+0x88>
    41e8:	f0 93 5b 06 	sts	0x065B, r31	; 0x80065b <__brkval+0x1>
    41ec:	e0 93 5a 06 	sts	0x065A, r30	; 0x80065a <__brkval>
    41f0:	67 c0       	rjmp	.+206    	; 0x42c0 <free+0x10c>
    41f2:	ed 01       	movw	r28, r26
    41f4:	20 e0       	ldi	r18, 0x00	; 0
    41f6:	30 e0       	ldi	r19, 0x00	; 0
    41f8:	ce 17       	cp	r28, r30
    41fa:	df 07       	cpc	r29, r31
    41fc:	40 f4       	brcc	.+16     	; 0x420e <free+0x5a>
    41fe:	4a 81       	ldd	r20, Y+2	; 0x02
    4200:	5b 81       	ldd	r21, Y+3	; 0x03
    4202:	9e 01       	movw	r18, r28
    4204:	41 15       	cp	r20, r1
    4206:	51 05       	cpc	r21, r1
    4208:	f1 f0       	breq	.+60     	; 0x4246 <free+0x92>
    420a:	ea 01       	movw	r28, r20
    420c:	f5 cf       	rjmp	.-22     	; 0x41f8 <free+0x44>
    420e:	d3 83       	std	Z+3, r29	; 0x03
    4210:	c2 83       	std	Z+2, r28	; 0x02
    4212:	40 81       	ld	r20, Z
    4214:	51 81       	ldd	r21, Z+1	; 0x01
    4216:	84 0f       	add	r24, r20
    4218:	95 1f       	adc	r25, r21
    421a:	c8 17       	cp	r28, r24
    421c:	d9 07       	cpc	r29, r25
    421e:	59 f4       	brne	.+22     	; 0x4236 <free+0x82>
    4220:	88 81       	ld	r24, Y
    4222:	99 81       	ldd	r25, Y+1	; 0x01
    4224:	84 0f       	add	r24, r20
    4226:	95 1f       	adc	r25, r21
    4228:	02 96       	adiw	r24, 0x02	; 2
    422a:	91 83       	std	Z+1, r25	; 0x01
    422c:	80 83       	st	Z, r24
    422e:	8a 81       	ldd	r24, Y+2	; 0x02
    4230:	9b 81       	ldd	r25, Y+3	; 0x03
    4232:	93 83       	std	Z+3, r25	; 0x03
    4234:	82 83       	std	Z+2, r24	; 0x02
    4236:	21 15       	cp	r18, r1
    4238:	31 05       	cpc	r19, r1
    423a:	29 f4       	brne	.+10     	; 0x4246 <free+0x92>
    423c:	f0 93 5d 06 	sts	0x065D, r31	; 0x80065d <__flp+0x1>
    4240:	e0 93 5c 06 	sts	0x065C, r30	; 0x80065c <__flp>
    4244:	3d c0       	rjmp	.+122    	; 0x42c0 <free+0x10c>
    4246:	e9 01       	movw	r28, r18
    4248:	fb 83       	std	Y+3, r31	; 0x03
    424a:	ea 83       	std	Y+2, r30	; 0x02
    424c:	49 91       	ld	r20, Y+
    424e:	59 91       	ld	r21, Y+
    4250:	c4 0f       	add	r28, r20
    4252:	d5 1f       	adc	r29, r21
    4254:	ec 17       	cp	r30, r28
    4256:	fd 07       	cpc	r31, r29
    4258:	61 f4       	brne	.+24     	; 0x4272 <free+0xbe>
    425a:	80 81       	ld	r24, Z
    425c:	91 81       	ldd	r25, Z+1	; 0x01
    425e:	84 0f       	add	r24, r20
    4260:	95 1f       	adc	r25, r21
    4262:	02 96       	adiw	r24, 0x02	; 2
    4264:	e9 01       	movw	r28, r18
    4266:	99 83       	std	Y+1, r25	; 0x01
    4268:	88 83       	st	Y, r24
    426a:	82 81       	ldd	r24, Z+2	; 0x02
    426c:	93 81       	ldd	r25, Z+3	; 0x03
    426e:	9b 83       	std	Y+3, r25	; 0x03
    4270:	8a 83       	std	Y+2, r24	; 0x02
    4272:	e0 e0       	ldi	r30, 0x00	; 0
    4274:	f0 e0       	ldi	r31, 0x00	; 0
    4276:	12 96       	adiw	r26, 0x02	; 2
    4278:	8d 91       	ld	r24, X+
    427a:	9c 91       	ld	r25, X
    427c:	13 97       	sbiw	r26, 0x03	; 3
    427e:	00 97       	sbiw	r24, 0x00	; 0
    4280:	19 f0       	breq	.+6      	; 0x4288 <free+0xd4>
    4282:	fd 01       	movw	r30, r26
    4284:	dc 01       	movw	r26, r24
    4286:	f7 cf       	rjmp	.-18     	; 0x4276 <free+0xc2>
    4288:	8d 91       	ld	r24, X+
    428a:	9c 91       	ld	r25, X
    428c:	11 97       	sbiw	r26, 0x01	; 1
    428e:	9d 01       	movw	r18, r26
    4290:	2e 5f       	subi	r18, 0xFE	; 254
    4292:	3f 4f       	sbci	r19, 0xFF	; 255
    4294:	82 0f       	add	r24, r18
    4296:	93 1f       	adc	r25, r19
    4298:	20 91 5a 06 	lds	r18, 0x065A	; 0x80065a <__brkval>
    429c:	30 91 5b 06 	lds	r19, 0x065B	; 0x80065b <__brkval+0x1>
    42a0:	28 17       	cp	r18, r24
    42a2:	39 07       	cpc	r19, r25
    42a4:	69 f4       	brne	.+26     	; 0x42c0 <free+0x10c>
    42a6:	30 97       	sbiw	r30, 0x00	; 0
    42a8:	29 f4       	brne	.+10     	; 0x42b4 <free+0x100>
    42aa:	10 92 5d 06 	sts	0x065D, r1	; 0x80065d <__flp+0x1>
    42ae:	10 92 5c 06 	sts	0x065C, r1	; 0x80065c <__flp>
    42b2:	02 c0       	rjmp	.+4      	; 0x42b8 <free+0x104>
    42b4:	13 82       	std	Z+3, r1	; 0x03
    42b6:	12 82       	std	Z+2, r1	; 0x02
    42b8:	b0 93 5b 06 	sts	0x065B, r27	; 0x80065b <__brkval+0x1>
    42bc:	a0 93 5a 06 	sts	0x065A, r26	; 0x80065a <__brkval>
    42c0:	df 91       	pop	r29
    42c2:	cf 91       	pop	r28
    42c4:	08 95       	ret

000042c6 <realloc>:
    42c6:	a0 e0       	ldi	r26, 0x00	; 0
    42c8:	b0 e0       	ldi	r27, 0x00	; 0
    42ca:	e9 e6       	ldi	r30, 0x69	; 105
    42cc:	f1 e2       	ldi	r31, 0x21	; 33
    42ce:	0c 94 93 22 	jmp	0x4526	; 0x4526 <__prologue_saves__+0x8>
    42d2:	ec 01       	movw	r28, r24
    42d4:	00 97       	sbiw	r24, 0x00	; 0
    42d6:	21 f4       	brne	.+8      	; 0x42e0 <realloc+0x1a>
    42d8:	cb 01       	movw	r24, r22
    42da:	0e 94 42 20 	call	0x4084	; 0x4084 <malloc>
    42de:	b4 c0       	rjmp	.+360    	; 0x4448 <realloc+0x182>
    42e0:	fc 01       	movw	r30, r24
    42e2:	e6 0f       	add	r30, r22
    42e4:	f7 1f       	adc	r31, r23
    42e6:	9c 01       	movw	r18, r24
    42e8:	22 50       	subi	r18, 0x02	; 2
    42ea:	31 09       	sbc	r19, r1
    42ec:	e2 17       	cp	r30, r18
    42ee:	f3 07       	cpc	r31, r19
    42f0:	08 f4       	brcc	.+2      	; 0x42f4 <realloc+0x2e>
    42f2:	a8 c0       	rjmp	.+336    	; 0x4444 <realloc+0x17e>
    42f4:	d9 01       	movw	r26, r18
    42f6:	0d 91       	ld	r16, X+
    42f8:	1c 91       	ld	r17, X
    42fa:	11 97       	sbiw	r26, 0x01	; 1
    42fc:	06 17       	cp	r16, r22
    42fe:	17 07       	cpc	r17, r23
    4300:	b0 f0       	brcs	.+44     	; 0x432e <realloc+0x68>
    4302:	05 30       	cpi	r16, 0x05	; 5
    4304:	11 05       	cpc	r17, r1
    4306:	08 f4       	brcc	.+2      	; 0x430a <realloc+0x44>
    4308:	9b c0       	rjmp	.+310    	; 0x4440 <realloc+0x17a>
    430a:	c8 01       	movw	r24, r16
    430c:	04 97       	sbiw	r24, 0x04	; 4
    430e:	86 17       	cp	r24, r22
    4310:	97 07       	cpc	r25, r23
    4312:	08 f4       	brcc	.+2      	; 0x4316 <realloc+0x50>
    4314:	95 c0       	rjmp	.+298    	; 0x4440 <realloc+0x17a>
    4316:	02 50       	subi	r16, 0x02	; 2
    4318:	11 09       	sbc	r17, r1
    431a:	06 1b       	sub	r16, r22
    431c:	17 0b       	sbc	r17, r23
    431e:	01 93       	st	Z+, r16
    4320:	11 93       	st	Z+, r17
    4322:	6d 93       	st	X+, r22
    4324:	7c 93       	st	X, r23
    4326:	cf 01       	movw	r24, r30
    4328:	0e 94 da 20 	call	0x41b4	; 0x41b4 <free>
    432c:	89 c0       	rjmp	.+274    	; 0x4440 <realloc+0x17a>
    432e:	5b 01       	movw	r10, r22
    4330:	a0 1a       	sub	r10, r16
    4332:	b1 0a       	sbc	r11, r17
    4334:	4c 01       	movw	r8, r24
    4336:	80 0e       	add	r8, r16
    4338:	91 1e       	adc	r9, r17
    433a:	a0 91 5c 06 	lds	r26, 0x065C	; 0x80065c <__flp>
    433e:	b0 91 5d 06 	lds	r27, 0x065D	; 0x80065d <__flp+0x1>
    4342:	61 2c       	mov	r6, r1
    4344:	71 2c       	mov	r7, r1
    4346:	e1 2c       	mov	r14, r1
    4348:	f1 2c       	mov	r15, r1
    434a:	10 97       	sbiw	r26, 0x00	; 0
    434c:	09 f4       	brne	.+2      	; 0x4350 <realloc+0x8a>
    434e:	46 c0       	rjmp	.+140    	; 0x43dc <realloc+0x116>
    4350:	8d 91       	ld	r24, X+
    4352:	9c 91       	ld	r25, X
    4354:	11 97       	sbiw	r26, 0x01	; 1
    4356:	a8 15       	cp	r26, r8
    4358:	b9 05       	cpc	r27, r9
    435a:	b1 f5       	brne	.+108    	; 0x43c8 <realloc+0x102>
    435c:	6c 01       	movw	r12, r24
    435e:	42 e0       	ldi	r20, 0x02	; 2
    4360:	c4 0e       	add	r12, r20
    4362:	d1 1c       	adc	r13, r1
    4364:	ca 14       	cp	r12, r10
    4366:	db 04       	cpc	r13, r11
    4368:	78 f1       	brcs	.+94     	; 0x43c8 <realloc+0x102>
    436a:	4c 01       	movw	r8, r24
    436c:	8a 18       	sub	r8, r10
    436e:	9b 08       	sbc	r9, r11
    4370:	64 01       	movw	r12, r8
    4372:	42 e0       	ldi	r20, 0x02	; 2
    4374:	c4 0e       	add	r12, r20
    4376:	d1 1c       	adc	r13, r1
    4378:	12 96       	adiw	r26, 0x02	; 2
    437a:	bc 90       	ld	r11, X
    437c:	12 97       	sbiw	r26, 0x02	; 2
    437e:	13 96       	adiw	r26, 0x03	; 3
    4380:	ac 91       	ld	r26, X
    4382:	b5 e0       	ldi	r27, 0x05	; 5
    4384:	cb 16       	cp	r12, r27
    4386:	d1 04       	cpc	r13, r1
    4388:	40 f0       	brcs	.+16     	; 0x439a <realloc+0xd4>
    438a:	b2 82       	std	Z+2, r11	; 0x02
    438c:	a3 83       	std	Z+3, r26	; 0x03
    438e:	91 82       	std	Z+1, r9	; 0x01
    4390:	80 82       	st	Z, r8
    4392:	d9 01       	movw	r26, r18
    4394:	6d 93       	st	X+, r22
    4396:	7c 93       	st	X, r23
    4398:	09 c0       	rjmp	.+18     	; 0x43ac <realloc+0xe6>
    439a:	0e 5f       	subi	r16, 0xFE	; 254
    439c:	1f 4f       	sbci	r17, 0xFF	; 255
    439e:	80 0f       	add	r24, r16
    43a0:	91 1f       	adc	r25, r17
    43a2:	f9 01       	movw	r30, r18
    43a4:	91 83       	std	Z+1, r25	; 0x01
    43a6:	80 83       	st	Z, r24
    43a8:	eb 2d       	mov	r30, r11
    43aa:	fa 2f       	mov	r31, r26
    43ac:	e1 14       	cp	r14, r1
    43ae:	f1 04       	cpc	r15, r1
    43b0:	31 f0       	breq	.+12     	; 0x43be <realloc+0xf8>
    43b2:	d7 01       	movw	r26, r14
    43b4:	13 96       	adiw	r26, 0x03	; 3
    43b6:	fc 93       	st	X, r31
    43b8:	ee 93       	st	-X, r30
    43ba:	12 97       	sbiw	r26, 0x02	; 2
    43bc:	41 c0       	rjmp	.+130    	; 0x4440 <realloc+0x17a>
    43be:	f0 93 5d 06 	sts	0x065D, r31	; 0x80065d <__flp+0x1>
    43c2:	e0 93 5c 06 	sts	0x065C, r30	; 0x80065c <__flp>
    43c6:	3c c0       	rjmp	.+120    	; 0x4440 <realloc+0x17a>
    43c8:	68 16       	cp	r6, r24
    43ca:	79 06       	cpc	r7, r25
    43cc:	08 f4       	brcc	.+2      	; 0x43d0 <realloc+0x10a>
    43ce:	3c 01       	movw	r6, r24
    43d0:	7d 01       	movw	r14, r26
    43d2:	12 96       	adiw	r26, 0x02	; 2
    43d4:	0d 90       	ld	r0, X+
    43d6:	bc 91       	ld	r27, X
    43d8:	a0 2d       	mov	r26, r0
    43da:	b7 cf       	rjmp	.-146    	; 0x434a <realloc+0x84>
    43dc:	80 91 5a 06 	lds	r24, 0x065A	; 0x80065a <__brkval>
    43e0:	90 91 5b 06 	lds	r25, 0x065B	; 0x80065b <__brkval+0x1>
    43e4:	88 16       	cp	r8, r24
    43e6:	99 06       	cpc	r9, r25
    43e8:	e1 f4       	brne	.+56     	; 0x4422 <realloc+0x15c>
    43ea:	66 16       	cp	r6, r22
    43ec:	77 06       	cpc	r7, r23
    43ee:	c8 f4       	brcc	.+50     	; 0x4422 <realloc+0x15c>
    43f0:	80 91 00 01 	lds	r24, 0x0100	; 0x800100 <__data_start>
    43f4:	90 91 01 01 	lds	r25, 0x0101	; 0x800101 <__data_start+0x1>
    43f8:	00 97       	sbiw	r24, 0x00	; 0
    43fa:	41 f4       	brne	.+16     	; 0x440c <realloc+0x146>
    43fc:	8d b7       	in	r24, 0x3d	; 61
    43fe:	9e b7       	in	r25, 0x3e	; 62
    4400:	40 91 04 01 	lds	r20, 0x0104	; 0x800104 <__malloc_margin>
    4404:	50 91 05 01 	lds	r21, 0x0105	; 0x800105 <__malloc_margin+0x1>
    4408:	84 1b       	sub	r24, r20
    440a:	95 0b       	sbc	r25, r21
    440c:	e8 17       	cp	r30, r24
    440e:	f9 07       	cpc	r31, r25
    4410:	c8 f4       	brcc	.+50     	; 0x4444 <realloc+0x17e>
    4412:	f0 93 5b 06 	sts	0x065B, r31	; 0x80065b <__brkval+0x1>
    4416:	e0 93 5a 06 	sts	0x065A, r30	; 0x80065a <__brkval>
    441a:	f9 01       	movw	r30, r18
    441c:	71 83       	std	Z+1, r23	; 0x01
    441e:	60 83       	st	Z, r22
    4420:	0f c0       	rjmp	.+30     	; 0x4440 <realloc+0x17a>
    4422:	cb 01       	movw	r24, r22
    4424:	0e 94 42 20 	call	0x4084	; 0x4084 <malloc>
    4428:	7c 01       	movw	r14, r24
    442a:	00 97       	sbiw	r24, 0x00	; 0
    442c:	59 f0       	breq	.+22     	; 0x4444 <realloc+0x17e>
    442e:	a8 01       	movw	r20, r16
    4430:	be 01       	movw	r22, r28
    4432:	0e 94 29 22 	call	0x4452	; 0x4452 <memcpy>
    4436:	ce 01       	movw	r24, r28
    4438:	0e 94 da 20 	call	0x41b4	; 0x41b4 <free>
    443c:	c7 01       	movw	r24, r14
    443e:	04 c0       	rjmp	.+8      	; 0x4448 <realloc+0x182>
    4440:	ce 01       	movw	r24, r28
    4442:	02 c0       	rjmp	.+4      	; 0x4448 <realloc+0x182>
    4444:	80 e0       	ldi	r24, 0x00	; 0
    4446:	90 e0       	ldi	r25, 0x00	; 0
    4448:	cd b7       	in	r28, 0x3d	; 61
    444a:	de b7       	in	r29, 0x3e	; 62
    444c:	ee e0       	ldi	r30, 0x0E	; 14
    444e:	0c 94 af 22 	jmp	0x455e	; 0x455e <__epilogue_restores__+0x8>

00004452 <memcpy>:
    4452:	fb 01       	movw	r30, r22
    4454:	dc 01       	movw	r26, r24
    4456:	02 c0       	rjmp	.+4      	; 0x445c <memcpy+0xa>
    4458:	01 90       	ld	r0, Z+
    445a:	0d 92       	st	X+, r0
    445c:	41 50       	subi	r20, 0x01	; 1
    445e:	50 40       	sbci	r21, 0x00	; 0
    4460:	d8 f7       	brcc	.-10     	; 0x4458 <memcpy+0x6>
    4462:	08 95       	ret

00004464 <strcpy>:
    4464:	fb 01       	movw	r30, r22
    4466:	dc 01       	movw	r26, r24
    4468:	01 90       	ld	r0, Z+
    446a:	0d 92       	st	X+, r0
    446c:	00 20       	and	r0, r0
    446e:	e1 f7       	brne	.-8      	; 0x4468 <strcpy+0x4>
    4470:	08 95       	ret

00004472 <itoa>:
    4472:	45 32       	cpi	r20, 0x25	; 37
    4474:	51 05       	cpc	r21, r1
    4476:	20 f4       	brcc	.+8      	; 0x4480 <itoa+0xe>
    4478:	42 30       	cpi	r20, 0x02	; 2
    447a:	10 f0       	brcs	.+4      	; 0x4480 <itoa+0xe>
    447c:	0c 94 44 22 	jmp	0x4488	; 0x4488 <__itoa_ncheck>
    4480:	fb 01       	movw	r30, r22
    4482:	10 82       	st	Z, r1
    4484:	cb 01       	movw	r24, r22
    4486:	08 95       	ret

00004488 <__itoa_ncheck>:
    4488:	bb 27       	eor	r27, r27
    448a:	4a 30       	cpi	r20, 0x0A	; 10
    448c:	31 f4       	brne	.+12     	; 0x449a <__itoa_ncheck+0x12>
    448e:	99 23       	and	r25, r25
    4490:	22 f4       	brpl	.+8      	; 0x449a <__itoa_ncheck+0x12>
    4492:	bd e2       	ldi	r27, 0x2D	; 45
    4494:	90 95       	com	r25
    4496:	81 95       	neg	r24
    4498:	9f 4f       	sbci	r25, 0xFF	; 255
    449a:	0c 94 50 22 	jmp	0x44a0	; 0x44a0 <__utoa_common>

0000449e <__utoa_ncheck>:
    449e:	bb 27       	eor	r27, r27

000044a0 <__utoa_common>:
    44a0:	fb 01       	movw	r30, r22
    44a2:	55 27       	eor	r21, r21
    44a4:	aa 27       	eor	r26, r26
    44a6:	88 0f       	add	r24, r24
    44a8:	99 1f       	adc	r25, r25
    44aa:	aa 1f       	adc	r26, r26
    44ac:	a4 17       	cp	r26, r20
    44ae:	10 f0       	brcs	.+4      	; 0x44b4 <__utoa_common+0x14>
    44b0:	a4 1b       	sub	r26, r20
    44b2:	83 95       	inc	r24
    44b4:	50 51       	subi	r21, 0x10	; 16
    44b6:	b9 f7       	brne	.-18     	; 0x44a6 <__utoa_common+0x6>
    44b8:	a0 5d       	subi	r26, 0xD0	; 208
    44ba:	aa 33       	cpi	r26, 0x3A	; 58
    44bc:	08 f0       	brcs	.+2      	; 0x44c0 <__utoa_common+0x20>
    44be:	a9 5d       	subi	r26, 0xD9	; 217
    44c0:	a1 93       	st	Z+, r26
    44c2:	00 97       	sbiw	r24, 0x00	; 0
    44c4:	79 f7       	brne	.-34     	; 0x44a4 <__utoa_common+0x4>
    44c6:	b1 11       	cpse	r27, r1
    44c8:	b1 93       	st	Z+, r27
    44ca:	11 92       	st	Z+, r1
    44cc:	cb 01       	movw	r24, r22
    44ce:	0c 94 69 22 	jmp	0x44d2	; 0x44d2 <strrev>

000044d2 <strrev>:
    44d2:	dc 01       	movw	r26, r24
    44d4:	fc 01       	movw	r30, r24
    44d6:	67 2f       	mov	r22, r23
    44d8:	71 91       	ld	r23, Z+
    44da:	77 23       	and	r23, r23
    44dc:	e1 f7       	brne	.-8      	; 0x44d6 <strrev+0x4>
    44de:	32 97       	sbiw	r30, 0x02	; 2
    44e0:	04 c0       	rjmp	.+8      	; 0x44ea <strrev+0x18>
    44e2:	7c 91       	ld	r23, X
    44e4:	6d 93       	st	X+, r22
    44e6:	70 83       	st	Z, r23
    44e8:	62 91       	ld	r22, -Z
    44ea:	ae 17       	cp	r26, r30
    44ec:	bf 07       	cpc	r27, r31
    44ee:	c8 f3       	brcs	.-14     	; 0x44e2 <strrev+0x10>
    44f0:	08 95       	ret

000044f2 <eeprom_read_byte>:
    44f2:	f9 99       	sbic	0x1f, 1	; 31
    44f4:	fe cf       	rjmp	.-4      	; 0x44f2 <eeprom_read_byte>
    44f6:	92 bd       	out	0x22, r25	; 34
    44f8:	81 bd       	out	0x21, r24	; 33
    44fa:	f8 9a       	sbi	0x1f, 0	; 31
    44fc:	99 27       	eor	r25, r25
    44fe:	80 b5       	in	r24, 0x20	; 32
    4500:	08 95       	ret

00004502 <eeprom_write_byte>:
    4502:	26 2f       	mov	r18, r22

00004504 <eeprom_write_r18>:
    4504:	f9 99       	sbic	0x1f, 1	; 31
    4506:	fe cf       	rjmp	.-4      	; 0x4504 <eeprom_write_r18>
    4508:	1f ba       	out	0x1f, r1	; 31
    450a:	92 bd       	out	0x22, r25	; 34
    450c:	81 bd       	out	0x21, r24	; 33
    450e:	20 bd       	out	0x20, r18	; 32
    4510:	0f b6       	in	r0, 0x3f	; 63
    4512:	f8 94       	cli
    4514:	fa 9a       	sbi	0x1f, 2	; 31
    4516:	f9 9a       	sbi	0x1f, 1	; 31
    4518:	0f be       	out	0x3f, r0	; 63
    451a:	01 96       	adiw	r24, 0x01	; 1
    451c:	08 95       	ret

0000451e <__prologue_saves__>:
    451e:	2f 92       	push	r2
    4520:	3f 92       	push	r3
    4522:	4f 92       	push	r4
    4524:	5f 92       	push	r5
    4526:	6f 92       	push	r6
    4528:	7f 92       	push	r7
    452a:	8f 92       	push	r8
    452c:	9f 92       	push	r9
    452e:	af 92       	push	r10
    4530:	bf 92       	push	r11
    4532:	cf 92       	push	r12
    4534:	df 92       	push	r13
    4536:	ef 92       	push	r14
    4538:	ff 92       	push	r15
    453a:	0f 93       	push	r16
    453c:	1f 93       	push	r17
    453e:	cf 93       	push	r28
    4540:	df 93       	push	r29
    4542:	cd b7       	in	r28, 0x3d	; 61
    4544:	de b7       	in	r29, 0x3e	; 62
    4546:	ca 1b       	sub	r28, r26
    4548:	db 0b       	sbc	r29, r27
    454a:	0f b6       	in	r0, 0x3f	; 63
    454c:	f8 94       	cli
    454e:	de bf       	out	0x3e, r29	; 62
    4550:	0f be       	out	0x3f, r0	; 63
    4552:	cd bf       	out	0x3d, r28	; 61
    4554:	09 94       	ijmp

00004556 <__epilogue_restores__>:
    4556:	2a 88       	ldd	r2, Y+18	; 0x12
    4558:	39 88       	ldd	r3, Y+17	; 0x11
    455a:	48 88       	ldd	r4, Y+16	; 0x10
    455c:	5f 84       	ldd	r5, Y+15	; 0x0f
    455e:	6e 84       	ldd	r6, Y+14	; 0x0e
    4560:	7d 84       	ldd	r7, Y+13	; 0x0d
    4562:	8c 84       	ldd	r8, Y+12	; 0x0c
    4564:	9b 84       	ldd	r9, Y+11	; 0x0b
    4566:	aa 84       	ldd	r10, Y+10	; 0x0a
    4568:	b9 84       	ldd	r11, Y+9	; 0x09
    456a:	c8 84       	ldd	r12, Y+8	; 0x08
    456c:	df 80       	ldd	r13, Y+7	; 0x07
    456e:	ee 80       	ldd	r14, Y+6	; 0x06
    4570:	fd 80       	ldd	r15, Y+5	; 0x05
    4572:	0c 81       	ldd	r16, Y+4	; 0x04
    4574:	1b 81       	ldd	r17, Y+3	; 0x03
    4576:	aa 81       	ldd	r26, Y+2	; 0x02
    4578:	b9 81       	ldd	r27, Y+1	; 0x01
    457a:	ce 0f       	add	r28, r30
    457c:	d1 1d       	adc	r29, r1
    457e:	0f b6       	in	r0, 0x3f	; 63
    4580:	f8 94       	cli
    4582:	de bf       	out	0x3e, r29	; 62
    4584:	0f be       	out	0x3f, r0	; 63
    4586:	cd bf       	out	0x3d, r28	; 61
    4588:	ed 01       	movw	r28, r26
    458a:	08 95       	ret

0000458c <_exit>:
    458c:	f8 94       	cli

0000458e <__stop_program>:
    458e:	ff cf       	rjmp	.-2      	; 0x458e <__stop_program>
